     VMA      LMA     Size Align Out     In      Symbol
       0        0        0     1 PAGE_SIZE = 256
       0        0        0     1 STACK_SIZE = 1500
       0        0        0     1 END_STACK = ORIGIN ( SRAM ) + LENGTH ( SRAM )
c0de0000 c0de0000    11800     8 .text
c0de0000 c0de0000        0     1         _text = .
c0de0000 c0de0000        0     1         _nvram_start = .
c0de0000 c0de0000       38     2         obj/main.o:(.boot)
c0de0000 c0de0000        0     1                 $t.36
c0de0001 c0de0001       38     1                 main
c0de0038 c0de0038      58c     4         obj/bagl.o:(.text.bagl_draw_with_context)
c0de0038 c0de0038        0     1                 $t.1
c0de0039 c0de0039      58c     1                 bagl_draw_with_context
c0de03e8 c0de03e8        0     1                 $d.2
c0de03ec c0de03ec        0     1                 $t.3
c0de05b4 c0de05b4        0     1                 $d.4
c0de05c4 c0de05c4       48     4         obj/bagl.o:(.text.bagl_get_font)
c0de05c4 c0de05c4        0     1                 $t.5
c0de05c5 c0de05c5       48     1                 bagl_get_font
c0de0600 c0de0600        0     1                 $d.6
c0de060c c0de060c       9e     2         obj/bagl.o:(.text.bagl_compute_line_width)
c0de060c c0de060c        0     1                 $t.7
c0de060d c0de060d       9e     1                 bagl_compute_line_width
c0de06ac c0de06ac      1e8     4         obj/bagl.o:(.text.bagl_draw_string)
c0de06ac c0de06ac        0     1                 $t.8
c0de06ad c0de06ad      1e8     1                 bagl_draw_string
c0de0890 c0de0890        0     1                 $d.9
c0de0894 c0de0894      35e     2         obj/bagl.o:(.text.bagl_draw_circle_helper)
c0de0894 c0de0894        0     1                 $t.10
c0de0895 c0de0895      35e     1                 bagl_draw_circle_helper
c0de0bf2 c0de0bf2       50     2         obj/bagl.o:(.text.bagl_draw_glyph)
c0de0bf2 c0de0bf2        0     1                 $t.11
c0de0bf3 c0de0bf3       50     1                 bagl_draw_glyph
c0de0c44 c0de0c44       44     4         obj/ble_gap_aci.o:(.text.aci_gap_set_io_capability)
c0de0c44 c0de0c44        0     1                 $t.8
c0de0c45 c0de0c45       44     1                 aci_gap_set_io_capability
c0de0c84 c0de0c84        0     1                 $d.9
c0de0c88 c0de0c88       6c     4         obj/ble_gap_aci.o:(.text.aci_gap_set_authentication_requirement)
c0de0c88 c0de0c88        0     1                 $t.10
c0de0c89 c0de0c89       6c     1                 aci_gap_set_authentication_requirement
c0de0cf0 c0de0cf0        0     1                 $d.11
c0de0cf4 c0de0cf4       4c     4         obj/ble_gap_aci.o:(.text.aci_gap_pass_key_resp)
c0de0cf4 c0de0cf4        0     1                 $t.14
c0de0cf5 c0de0cf5       4c     1                 aci_gap_pass_key_resp
c0de0d3c c0de0d3c        0     1                 $d.15
c0de0d40 c0de0d40       8c     4         obj/ble_gap_aci.o:(.text.aci_gap_init)
c0de0d40 c0de0d40        0     1                 $t.18
c0de0d41 c0de0d41       8c     1                 aci_gap_init
c0de0dc8 c0de0dc8        0     1                 $d.19
c0de0dcc c0de0dcc       4c     4         obj/ble_gap_aci.o:(.text.aci_gap_terminate)
c0de0dcc c0de0dcc        0     1                 $t.36
c0de0dcd c0de0dcd       4c     1                 aci_gap_terminate
c0de0e14 c0de0e14        0     1                 $d.37
c0de0e18 c0de0e18       48     4         obj/ble_gap_aci.o:(.text.aci_gap_numeric_comparison_value_confirm_yesno)
c0de0e18 c0de0e18        0     1                 $t.72
c0de0e19 c0de0e19       48     1                 aci_gap_numeric_comparison_value_confirm_yesno
c0de0e5c c0de0e5c        0     1                 $d.73
c0de0e60 c0de0e60       3c     4         obj/ble_gatt_aci.o:(.text.aci_gatt_init)
c0de0e60 c0de0e60        0     1                 $t.0
c0de0e61 c0de0e61       3c     1                 aci_gatt_init
c0de0e98 c0de0e98        0     1                 $d.1
c0de0e9c c0de0e9c       a4     4         obj/ble_gatt_aci.o:(.text.aci_gatt_add_service)
c0de0e9c c0de0e9c        0     1                 $t.2
c0de0e9d c0de0e9d       a4     1                 aci_gatt_add_service
c0de0f3c c0de0f3c        0     1                 $d.3
c0de0f40 c0de0f40       cc     4         obj/ble_gatt_aci.o:(.text.aci_gatt_add_char)
c0de0f40 c0de0f40        0     1                 $t.6
c0de0f41 c0de0f41       cc     1                 aci_gatt_add_char
c0de1008 c0de1008        0     1                 $d.7
c0de100c c0de100c       5c     4         obj/ble_gatt_aci.o:(.text.aci_gatt_update_char_value)
c0de100c c0de100c        0     1                 $t.10
c0de100d c0de100d       5c     1                 aci_gatt_update_char_value
c0de1064 c0de1064        0     1                 $d.11
c0de1068 c0de1068       4c     4         obj/ble_gatt_aci.o:(.text.aci_gatt_exchange_config)
c0de1068 c0de1068        0     1                 $t.20
c0de1069 c0de1069       4c     1                 aci_gatt_exchange_config
c0de10b0 c0de10b0        0     1                 $d.21
c0de10b4 c0de10b4       48     4         obj/ble_gatt_aci.o:(.text.aci_gatt_confirm_indication)
c0de10b4 c0de10b4        0     1                 $t.72
c0de10b5 c0de10b5       48     1                 aci_gatt_confirm_indication
c0de10f8 c0de10f8        0     1                 $d.73
c0de10fc c0de10fc       60     4         obj/ble_gatt_aci.o:(.text.aci_gatt_write_resp)
c0de10fc c0de10fc        0     1                 $t.74
c0de10fd c0de10fd       60     1                 aci_gatt_write_resp
c0de1158 c0de1158        0     1                 $d.75
c0de115c c0de115c       58     4         obj/ble_hal_aci.o:(.text.aci_hal_write_config_data)
c0de115c c0de115c        0     1                 $t.1
c0de115d c0de115d       58     1                 aci_hal_write_config_data
c0de11b0 c0de11b0        0     1                 $d.2
c0de11b4 c0de11b4       48     4         obj/ble_hal_aci.o:(.text.aci_hal_set_tx_power_level)
c0de11b4 c0de11b4        0     1                 $t.5
c0de11b5 c0de11b5       48     1                 aci_hal_set_tx_power_level
c0de11f8 c0de11f8        0     1                 $d.6
c0de11fc c0de11fc       3c     4         obj/ble_hci_le.o:(.text.hci_reset)
c0de11fc c0de11fc        0     1                 $t.6
c0de11fd c0de11fd       3c     1                 hci_reset
c0de1234 c0de1234        0     1                 $d.7
c0de1238 c0de1238       64     4         obj/ble_hci_le.o:(.text.hci_le_set_advertising_parameters)
c0de1238 c0de1238        0     1                 $t.34
c0de1239 c0de1239       64     1                 hci_le_set_advertising_parameters
c0de1298 c0de1298        0     1                 $d.35
c0de129c c0de129c       50     4         obj/ble_hci_le.o:(.text.hci_le_set_advertising_data)
c0de129c c0de129c        0     1                 $t.38
c0de129d c0de129d       50     1                 hci_le_set_advertising_data
c0de12e8 c0de12e8        0     1                 $d.39
c0de12ec c0de12ec       50     4         obj/ble_hci_le.o:(.text.hci_le_set_scan_response_data)
c0de12ec c0de12ec        0     1                 $t.40
c0de12ed c0de12ed       50     1                 hci_le_set_scan_response_data
c0de1338 c0de1338        0     1                 $d.41
c0de133c c0de133c       44     4         obj/ble_hci_le.o:(.text.hci_le_set_advertise_enable)
c0de133c c0de133c        0     1                 $t.42
c0de133d c0de133d       44     1                 hci_le_set_advertise_enable
c0de137c c0de137c        0     1                 $d.43
c0de1380 c0de1380       38     4         obj/cmd_getAppConfiguration.o:(.text.handleGetAppConfiguration)
c0de1380 c0de1380        0     1                 $t.0
c0de1381 c0de1381       38     1                 handleGetAppConfiguration
c0de13b0 c0de13b0        0     1                 $d.1
c0de13b8 c0de13b8       cc     4         obj/cmd_getEth2PublicKey.o:(.text.getEth2PublicKey)
c0de13b8 c0de13b8        0     1                 $t.0
c0de13b9 c0de13b9       cc     1                 getEth2PublicKey
c0de1480 c0de1480        0     1                 $d.1
c0de1484 c0de1484       b0     4         obj/cmd_getEth2PublicKey.o:(.text.handleGetEth2PublicKey)
c0de1484 c0de1484        0     1                 $t.2
c0de1485 c0de1485       b0     1                 handleGetEth2PublicKey
c0de1528 c0de1528        0     1                 $d.3
c0de1534 c0de1534      158     4         obj/cmd_getPublicKey.o:(.text.handleGetPublicKey)
c0de1534 c0de1534        0     1                 $t.0
c0de1535 c0de1535      158     1                 handleGetPublicKey
c0de1670 c0de1670        0     1                 $d.1
c0de168c c0de168c       3e     2         obj/cmd_performPrivacyOperation.o:(.text.decodeScalar)
c0de168c c0de168c        0     1                 $t.0
c0de168d c0de168d       3e     1                 decodeScalar
c0de16cc c0de16cc      1f4     4         obj/cmd_performPrivacyOperation.o:(.text.handlePerformPrivacyOperation)
c0de16cc c0de16cc        0     1                 $t.1
c0de16cd c0de16cd      1f4     1                 handlePerformPrivacyOperation
c0de189c c0de189c        0     1                 $d.2
c0de18c0 c0de18c0       14     2         obj/cmd_performPrivacyOperation.o:(.text.cx_ecfp_init_private_key)
c0de18c0 c0de18c0        0     1                 $t.3
c0de18c1 c0de18c1       14     1                 cx_ecfp_init_private_key
c0de18d4 c0de18d4       20     4         obj/cmd_performPrivacyOperation.o:(.text.cx_ecfp_generate_pair)
c0de18d4 c0de18d4        0     1                 $t.4
c0de18d5 c0de18d5       20     1                 cx_ecfp_generate_pair
c0de18f0 c0de18f0        0     1                 $d.5
c0de18f4 c0de18f4      14c     4         obj/cmd_provideNFTInfo.o:(.text.handleProvideNFTInformation)
c0de18f4 c0de18f4        0     1                 $t.0
c0de18f5 c0de18f5      14c     1                 handleProvideNFTInformation
c0de1a30 c0de1a30        0     1                 $d.1
c0de1a40 c0de1a40      110     4         obj/cmd_provideTokenInfo.o:(.text.handleProvideErc20TokenInformation)
c0de1a40 c0de1a40        0     1                 $t.0
c0de1a41 c0de1a41      110     1                 handleProvideErc20TokenInformation
c0de1b44 c0de1b44        0     1                 $d.1
c0de1b50 c0de1b50       18     2         obj/cmd_provideTokenInfo.o:(.text.U4BE)
c0de1b50 c0de1b50        0     1                 $t.2
c0de1b51 c0de1b51       18     1                 U4BE
c0de1b68 c0de1b68       2c     4         obj/cmd_setEth2WithdrawalIndex.o:(.text.handleSetEth2WithdrawalIndex)
c0de1b68 c0de1b68        0     1                 $t.0
c0de1b69 c0de1b69       2c     1                 handleSetEth2WithdrawalIndex
c0de1b90 c0de1b90        0     1                 $d.1
c0de1b94 c0de1b94       16     2         obj/cmd_setEth2WithdrawalIndex.o:(.text.U4BE)
c0de1b94 c0de1b94        0     1                 $t.2
c0de1b95 c0de1b95       16     1                 U4BE
c0de1bac c0de1bac      124     4         obj/cmd_setExternalPlugin.o:(.text.handleSetExternalPlugin)
c0de1bac c0de1bac        0     1                 $t.0
c0de1bad c0de1bad      124     1                 handleSetExternalPlugin
c0de1cbc c0de1cbc        0     1                 $d.1
c0de1cd0 c0de1cd0      198     4         obj/cmd_setPlugin.o:(.text.handleSetPlugin)
c0de1cd0 c0de1cd0        0     1                 $t.0
c0de1cd1 c0de1cd1      198     1                 handleSetPlugin
c0de1e4c c0de1e4c        0     1                 $d.1
c0de1e68 c0de1e68      310     4         obj/cmd_signMessage.o:(.text.handleSignPersonalMessage)
c0de1e68 c0de1e68        0     1                 $t.0
c0de1e69 c0de1e69      310     1                 handleSignPersonalMessage
c0de214c c0de214c        0     1                 $d.1
c0de2178 c0de2178       16     2         obj/cmd_signMessage.o:(.text.U4BE)
c0de2178 c0de2178        0     1                 $t.2
c0de2179 c0de2179       16     1                 U4BE
c0de218e c0de218e       22     2         obj/cmd_signMessage.o:(.text.cx_hash)
c0de218e c0de218e        0     1                 $t.3
c0de218f c0de218f       22     1                 cx_hash
c0de21b0 c0de21b0       c4     4         obj/cmd_signMessage712.o:(.text.handleSignEIP712Message)
c0de21b0 c0de21b0        0     1                 $t.0
c0de21b1 c0de21b1       c4     1                 handleSignEIP712Message
c0de2268 c0de2268        0     1                 $d.1
c0de2274 c0de2274      254     4         obj/cmd_signTx.o:(.text.handleSign)
c0de2274 c0de2274        0     1                 $t.0
c0de2275 c0de2275      254     1                 handleSign
c0de2494 c0de2494        0     1                 $d.1
c0de24c8 c0de24c8      100     4         obj/cmd_stark_getPublicKey.o:(.text.handleStarkwareGetPublicKey)
c0de24c8 c0de24c8        0     1                 $t.0
c0de24c9 c0de24c9      100     1                 handleStarkwareGetPublicKey
c0de25b8 c0de25b8        0     1                 $d.1
c0de25c8 c0de25c8       f0     4         obj/cmd_stark_provideQuantum.o:(.text.handleStarkwareProvideQuantum)
c0de25c8 c0de25c8        0     1                 $t.0
c0de25c9 c0de25c9       f0     1                 handleStarkwareProvideQuantum
c0de26a8 c0de26a8        0     1                 $d.1
c0de26b8 c0de26b8      564     4         obj/cmd_stark_sign.o:(.text.handleStarkwareSignMessage)
c0de26b8 c0de26b8        0     1                 $t.0
c0de26b9 c0de26b9      564     1                 handleStarkwareSignMessage
c0de2a98 c0de2a98        0     1                 $d.1
c0de2aa4 c0de2aa4        0     1                 $t.2
c0de2be0 c0de2be0        0     1                 $d.3
c0de2c1c c0de2c1c       18     2         obj/cmd_stark_sign.o:(.text.U4BE)
c0de2c1c c0de2c1c        0     1                 $t.4
c0de2c1d c0de2c1d       18     1                 U4BE
c0de2c34 c0de2c34       16     2         obj/cmd_stark_sign.o:(.text.allzeroes)
c0de2c34 c0de2c34        0     1                 $t.5
c0de2c35 c0de2c35       16     1                 allzeroes
c0de2c4c c0de2c4c       30     4         obj/cmd_stark_sign.o:(.text.cx_hash)
c0de2c4c c0de2c4c        0     1                 $t.6
c0de2c4d c0de2c4d       30     1                 cx_hash
c0de2c78 c0de2c78        0     1                 $d.7
c0de2c7c c0de2c7c      118     4         obj/cmd_stark_unsafe_sign.o:(.text.handleStarkwareUnsafeSign)
c0de2c7c c0de2c7c        0     1                 $t.0
c0de2c7d c0de2c7d      118     1                 handleStarkwareUnsafeSign
c0de2d84 c0de2d84        0     1                 $d.1
c0de2d94 c0de2d94       48     4         obj/compound_plugin.o:(.text.get_underlying_asset_decimals)
c0de2d94 c0de2d94        0     1                 $t.0
c0de2d95 c0de2d95       48     1                 get_underlying_asset_decimals
c0de2dd8 c0de2dd8        0     1                 $d.1
c0de2ddc c0de2ddc      228     4         obj/compound_plugin.o:(.text.compound_plugin_call)
c0de2ddc c0de2ddc        0     1                 $t.2
c0de2ddd c0de2ddd      228     1                 compound_plugin_call
c0de2fdc c0de2fdc        0     1                 $d.3
c0de3004 c0de3004        c     4         obj/cx_stubs.o:(.text.cx_crc16)
c0de3004 c0de3004        0     1                 $t
c0de3005 c0de3005        0     1                 cx_crc16
c0de300a c0de300a        0     1                 $d
c0de300c c0de300c        0     1                 $d
c0de3010 c0de3010        c     4         obj/cx_stubs.o:(.text.cx_crc16_update)
c0de3010 c0de3010        0     1                 $t
c0de3011 c0de3011        0     1                 cx_crc16_update
c0de3016 c0de3016        0     1                 $d
c0de3018 c0de3018        0     1                 $d
c0de301c c0de301c        c     4         obj/cx_stubs.o:(.text.cx_ecdsa_sign_no_throw)
c0de301c c0de301c        0     1                 $t
c0de301d c0de301d        0     1                 cx_ecdsa_sign_no_throw
c0de3022 c0de3022        0     1                 $d
c0de3024 c0de3024        0     1                 $d
c0de3028 c0de3028        c     4         obj/cx_stubs.o:(.text.cx_ecdsa_verify_no_throw)
c0de3028 c0de3028        0     1                 $t
c0de3029 c0de3029        0     1                 cx_ecdsa_verify_no_throw
c0de302e c0de302e        0     1                 $d
c0de3030 c0de3030        0     1                 $d
c0de3034 c0de3034        c     4         obj/cx_stubs.o:(.text.cx_ecfp_add_point_no_throw)
c0de3034 c0de3034        0     1                 $t
c0de3035 c0de3035        0     1                 cx_ecfp_add_point_no_throw
c0de303a c0de303a        0     1                 $d
c0de303c c0de303c        0     1                 $d
c0de3040 c0de3040        c     4         obj/cx_stubs.o:(.text.cx_ecfp_generate_pair_no_throw)
c0de3040 c0de3040        0     1                 $t
c0de3041 c0de3041        0     1                 cx_ecfp_generate_pair_no_throw
c0de3046 c0de3046        0     1                 $d
c0de3048 c0de3048        0     1                 $d
c0de304c c0de304c        c     4         obj/cx_stubs.o:(.text.cx_ecfp_init_private_key_no_throw)
c0de304c c0de304c        0     1                 $t
c0de304d c0de304d        0     1                 cx_ecfp_init_private_key_no_throw
c0de3052 c0de3052        0     1                 $d
c0de3054 c0de3054        0     1                 $d
c0de3058 c0de3058        c     4         obj/cx_stubs.o:(.text.cx_ecfp_init_public_key_no_throw)
c0de3058 c0de3058        0     1                 $t
c0de3059 c0de3059        0     1                 cx_ecfp_init_public_key_no_throw
c0de305e c0de305e        0     1                 $d
c0de3060 c0de3060        0     1                 $d
c0de3064 c0de3064        c     4         obj/cx_stubs.o:(.text.cx_ecfp_scalar_mult_no_throw)
c0de3064 c0de3064        0     1                 $t
c0de3065 c0de3065        0     1                 cx_ecfp_scalar_mult_no_throw
c0de306a c0de306a        0     1                 $d
c0de306c c0de306c        0     1                 $d
c0de3070 c0de3070        c     4         obj/cx_stubs.o:(.text.cx_hash_get_size)
c0de3070 c0de3070        0     1                 $t
c0de3071 c0de3071        0     1                 cx_hash_get_size
c0de3076 c0de3076        0     1                 $d
c0de3078 c0de3078        0     1                 $d
c0de307c c0de307c        c     4         obj/cx_stubs.o:(.text.cx_hash_no_throw)
c0de307c c0de307c        0     1                 $t
c0de307d c0de307d        0     1                 cx_hash_no_throw
c0de3082 c0de3082        0     1                 $d
c0de3084 c0de3084        0     1                 $d
c0de3088 c0de3088        c     4         obj/cx_stubs.o:(.text.cx_hash_sha256)
c0de3088 c0de3088        0     1                 $t
c0de3089 c0de3089        0     1                 cx_hash_sha256
c0de308e c0de308e        0     1                 $d
c0de3090 c0de3090        0     1                 $d
c0de3094 c0de3094        c     4         obj/cx_stubs.o:(.text.cx_hash_sha512)
c0de3094 c0de3094        0     1                 $t
c0de3095 c0de3095        0     1                 cx_hash_sha512
c0de309a c0de309a        0     1                 $d
c0de309c c0de309c        0     1                 $d
c0de30a0 c0de30a0        c     4         obj/cx_stubs.o:(.text.cx_keccak_init_no_throw)
c0de30a0 c0de30a0        0     1                 $t
c0de30a1 c0de30a1        0     1                 cx_keccak_init_no_throw
c0de30a6 c0de30a6        0     1                 $d
c0de30a8 c0de30a8        0     1                 $d
c0de30ac c0de30ac        c     4         obj/cx_stubs.o:(.text.cx_math_cmp_no_throw)
c0de30ac c0de30ac        0     1                 $t
c0de30ad c0de30ad        0     1                 cx_math_cmp_no_throw
c0de30b2 c0de30b2        0     1                 $d
c0de30b4 c0de30b4        0     1                 $d
c0de30b8 c0de30b8        c     4         obj/cx_stubs.o:(.text.cx_math_modm_no_throw)
c0de30b8 c0de30b8        0     1                 $t
c0de30b9 c0de30b9        0     1                 cx_math_modm_no_throw
c0de30be c0de30be        0     1                 $d
c0de30c0 c0de30c0        0     1                 $d
c0de30c4 c0de30c4        c     4         obj/cx_stubs.o:(.text.cx_math_mult_no_throw)
c0de30c4 c0de30c4        0     1                 $t
c0de30c5 c0de30c5        0     1                 cx_math_mult_no_throw
c0de30ca c0de30ca        0     1                 $d
c0de30cc c0de30cc        0     1                 $d
c0de30d0 c0de30d0        c     4         obj/cx_stubs.o:(.text.cx_rng_no_throw)
c0de30d0 c0de30d0        0     1                 $t
c0de30d1 c0de30d1        0     1                 cx_rng_no_throw
c0de30d6 c0de30d6        0     1                 $d
c0de30d8 c0de30d8        0     1                 $d
c0de30dc c0de30dc        c     4         obj/cx_stubs.o:(.text.cx_rng_u32_range_func)
c0de30dc c0de30dc        0     1                 $t
c0de30dd c0de30dd        0     1                 cx_rng_u32_range_func
c0de30e2 c0de30e2        0     1                 $d
c0de30e4 c0de30e4        0     1                 $d
c0de30e8 c0de30e8        c     4         obj/cx_stubs.o:(.text.cx_sha256_init_no_throw)
c0de30e8 c0de30e8        0     1                 $t
c0de30e9 c0de30e9        0     1                 cx_sha256_init_no_throw
c0de30ee c0de30ee        0     1                 $d
c0de30f0 c0de30f0        0     1                 $d
c0de30f4 c0de30f4        c     4         obj/cx_stubs.o:(.text.cx_x25519)
c0de30f4 c0de30f4        0     1                 $t
c0de30f5 c0de30f5        0     1                 cx_x25519
c0de30fa c0de30fa        0     1                 $d
c0de30fc c0de30fc        0     1                 $d
c0de3100 c0de3100       14     4         obj/cx_stubs.o:(.text.cx_x448)
c0de3100 c0de3100        0     1                 $t
c0de3101 c0de3101        0     1                 cx_x448
c0de3107 c0de3107        0     1                 cx_trampoline_helper
c0de310a c0de310a        0     1                 $d
c0de310c c0de310c        0     1                 $d
c0de3114 c0de3114      184     4         obj/erc1155_plugin.o:(.text.erc1155_plugin_call)
c0de3114 c0de3114        0     1                 $t.0
c0de3115 c0de3115      184     1                 erc1155_plugin_call
c0de3280 c0de3280        0     1                 $d.1
c0de3298 c0de3298       18     2         obj/erc1155_plugin.o:(.text.allzeroes)
c0de3298 c0de3298        0     1                 $t.2
c0de3299 c0de3299       18     1                 allzeroes
c0de32b0 c0de32b0      188     2         obj/erc1155_provide_parameters.o:(.text.handle_provide_parameter_1155)
c0de32b0 c0de32b0        0     1                 $t.0
c0de32b1 c0de32b1      188     1                 handle_provide_parameter_1155
c0de3438 c0de3438       16     2         obj/erc1155_provide_parameters.o:(.text.U4BE)
c0de3438 c0de3438        0     1                 $t.1
c0de3439 c0de3439       16     1                 U4BE
c0de3450 c0de3450      184     4         obj/erc1155_ui.o:(.text.handle_query_contract_ui_1155)
c0de3450 c0de3450        0     1                 $t.0
c0de3451 c0de3451      184     1                 handle_query_contract_ui_1155
c0de35a4 c0de35a4        0     1                 $d.1
c0de35d4 c0de35d4       44     4         obj/erc20_plugin.o:(.text.check_contract)
c0de35d4 c0de35d4        0     1                 $t.0
c0de35d5 c0de35d5       44     1                 check_contract
c0de3614 c0de3614        0     1                 $d.1
c0de3618 c0de3618       30     4         obj/erc20_plugin.o:(.text.erc20_plugin_available_check)
c0de3618 c0de3618        0     1                 $t.2
c0de3619 c0de3619       30     1                 erc20_plugin_available_check
c0de3640 c0de3640        0     1                 $d.3
c0de3648 c0de3648      230     4         obj/erc20_plugin.o:(.text.erc20_plugin_call)
c0de3648 c0de3648        0     1                 $t.4
c0de3649 c0de3649      230     1                 erc20_plugin_call
c0de3854 c0de3854        0     1                 $d.5
c0de3878 c0de3878      168     4         obj/erc721_plugin.o:(.text.erc721_plugin_call)
c0de3878 c0de3878        0     1                 $t.0
c0de3879 c0de3879      168     1                 erc721_plugin_call
c0de39cc c0de39cc        0     1                 $d.1
c0de39e0 c0de39e0       18     2         obj/erc721_plugin.o:(.text.allzeroes)
c0de39e0 c0de39e0        0     1                 $t.2
c0de39e1 c0de39e1       18     1                 allzeroes
c0de39f8 c0de39f8       8e     2         obj/erc721_provide_parameters.o:(.text.handle_provide_parameter_721)
c0de39f8 c0de39f8        0     1                 $t.0
c0de39f9 c0de39f9       8e     1                 handle_provide_parameter_721
c0de3a86 c0de3a86       48     2         obj/erc721_provide_parameters.o:(.text.handle_transfer)
c0de3a86 c0de3a86        0     1                 $t.1
c0de3a87 c0de3a87       48     1                 handle_transfer
c0de3ad0 c0de3ad0      144     4         obj/erc721_ui.o:(.text.handle_query_contract_ui_721)
c0de3ad0 c0de3ad0        0     1                 $t.0
c0de3ad1 c0de3ad1      144     1                 handle_query_contract_ui_721
c0de3be8 c0de3be8        0     1                 $d.1
c0de3c14 c0de3c14      230     4         obj/eth2_plugin.o:(.text.eth2_plugin_call)
c0de3c14 c0de3c14        0     1                 $t.0
c0de3c15 c0de3c15      230     1                 eth2_plugin_call
c0de3e18 c0de3e18        0     1                 $d.1
c0de3e44 c0de3e44       30     2         obj/ethUstream.o:(.text.initTx)
c0de3e44 c0de3e44        0     1                 $t.0
c0de3e45 c0de3e45       30     1                 initTx
c0de3e74 c0de3e74       42     2         obj/ethUstream.o:(.text.readTxByte)
c0de3e74 c0de3e74        0     1                 $t.1
c0de3e75 c0de3e75       42     1                 readTxByte
c0de3eb6 c0de3eb6       22     2         obj/ethUstream.o:(.text.cx_hash)
c0de3eb6 c0de3eb6        0     1                 $t.2
c0de3eb7 c0de3eb7       22     1                 cx_hash
c0de3ed8 c0de3ed8       60     2         obj/ethUstream.o:(.text.copyTxData)
c0de3ed8 c0de3ed8        0     1                 $t.3
c0de3ed9 c0de3ed9       60     1                 copyTxData
c0de3f38 c0de3f38       64     2         obj/ethUstream.o:(.text.processTx)
c0de3f38 c0de3f38        0     1                 $t.4
c0de3f39 c0de3f39       64     1                 processTx
c0de3f9c c0de3f9c      246     2         obj/ethUstream.o:(.text.processTxInternal)
c0de3f9c c0de3f9c        0     1                 $t.5
c0de3f9d c0de3f9d      246     1                 processTxInternal
c0de41e2 c0de41e2       56     2         obj/ethUstream.o:(.text.continueTx)
c0de41e2 c0de41e2        0     1                 $t.6
c0de41e3 c0de41e3       56     1                 continueTx
c0de4238 c0de4238       1e     2         obj/ethUstream.o:(.text.processContent)
c0de4238 c0de4238        0     1                 $t.7
c0de4239 c0de4239       1e     1                 processContent
c0de4256 c0de4256       42     2         obj/ethUstream.o:(.text.processType)
c0de4256 c0de4256        0     1                 $t.8
c0de4257 c0de4257       42     1                 processType
c0de4298 c0de4298       4a     2         obj/ethUstream.o:(.text.processNonce)
c0de4298 c0de4298        0     1                 $t.9
c0de4299 c0de4299       4a     1                 processNonce
c0de42e2 c0de42e2       4a     2         obj/ethUstream.o:(.text.processGasprice)
c0de42e2 c0de42e2        0     1                 $t.10
c0de42e3 c0de42e3       4a     1                 processGasprice
c0de432c c0de432c       4c     2         obj/ethUstream.o:(.text.processStartGas)
c0de432c c0de432c        0     1                 $t.11
c0de432d c0de432d       4c     1                 processStartGas
c0de4378 c0de4378       4c     2         obj/ethUstream.o:(.text.processTo)
c0de4378 c0de4378        0     1                 $t.12
c0de4379 c0de4379       4c     1                 processTo
c0de43c4 c0de43c4       4c     2         obj/ethUstream.o:(.text.processValue)
c0de43c4 c0de43c4        0     1                 $t.13
c0de43c5 c0de43c5       4c     1                 processValue
c0de4410 c0de4410       52     2         obj/ethUstream.o:(.text.processData)
c0de4410 c0de4410        0     1                 $t.14
c0de4411 c0de4411       52     1                 processData
c0de4462 c0de4462       3e     2         obj/ethUstream.o:(.text.processAndDiscard)
c0de4462 c0de4462        0     1                 $t.15
c0de4463 c0de4463       3e     1                 processAndDiscard
c0de44a0 c0de44a0       4a     2         obj/ethUstream.o:(.text.processChainID)
c0de44a0 c0de44a0        0     1                 $t.16
c0de44a1 c0de44a1       4a     1                 processChainID
c0de44ea c0de44ea       3e     2         obj/ethUstream.o:(.text.processAccessList)
c0de44ea c0de44ea        0     1                 $t.17
c0de44eb c0de44eb       3e     1                 processAccessList
c0de4528 c0de4528       3c     2         obj/ethUtils.o:(.text.rlpCanDecode)
c0de4528 c0de4528        0     1                 $t.0
c0de4529 c0de4529       3c     1                 rlpCanDecode
c0de4564 c0de4564       e0     2         obj/ethUtils.o:(.text.rlpDecodeLength)
c0de4564 c0de4564        0     1                 $t.1
c0de4565 c0de4565       e0     1                 rlpDecodeLength
c0de4644 c0de4644       30     2         obj/ethUtils.o:(.text.getEthAddressFromKey)
c0de4644 c0de4644        0     1                 $t.2
c0de4645 c0de4645       30     1                 getEthAddressFromKey
c0de4674 c0de4674       14     2         obj/ethUtils.o:(.text.cx_keccak_init)
c0de4674 c0de4674        0     1                 $t.3
c0de4675 c0de4675       14     1                 cx_keccak_init
c0de4688 c0de4688       28     2         obj/ethUtils.o:(.text.cx_hash)
c0de4688 c0de4688        0     1                 $t.4
c0de4689 c0de4689       28     1                 cx_hash
c0de46b0 c0de46b0       38     2         obj/ethUtils.o:(.text.getEthAddressStringFromKey)
c0de46b0 c0de46b0        0     1                 $t.5
c0de46b1 c0de46b1       38     1                 getEthAddressStringFromKey
c0de46e8 c0de46e8       dc     4         obj/ethUtils.o:(.text.getEthAddressStringFromBinary)
c0de46e8 c0de46e8        0     1                 $t.6
c0de46e9 c0de46e9       dc     1                 getEthAddressStringFromBinary
c0de47bc c0de47bc        0     1                 $d.7
c0de47c4 c0de47c4       78     4         obj/ethUtils.o:(.text.u64_to_string)
c0de47c4 c0de47c4        0     1                 $t.8
c0de47c5 c0de47c5       78     1                 u64_to_string
c0de4838 c0de4838        0     1                 $d.9
c0de483c c0de483c       34     4         obj/ethUtils.o:(.text.getEthDisplayableAddress)
c0de483c c0de483c        0     1                 $t.10
c0de483d c0de483d       34     1                 getEthDisplayableAddress
c0de486c c0de486c        0     1                 $d.11
c0de4870 c0de4870       d6     2         obj/ethUtils.o:(.text.adjustDecimals)
c0de4870 c0de4870        0     1                 $t.12
c0de4871 c0de4871       d6     1                 adjustDecimals
c0de4946 c0de4946       14     2         obj/eth_plugin_handler.o:(.text.eth_plugin_prepare_init)
c0de4946 c0de4946        0     1                 $t.0
c0de4947 c0de4947       14     1                 eth_plugin_prepare_init
c0de495a c0de495a       14     2         obj/eth_plugin_handler.o:(.text.eth_plugin_prepare_provide_parameter)
c0de495a c0de495a        0     1                 $t.1
c0de495b c0de495b       14     1                 eth_plugin_prepare_provide_parameter
c0de496e c0de496e        a     2         obj/eth_plugin_handler.o:(.text.eth_plugin_prepare_finalize)
c0de496e c0de496e        0     1                 $t.2
c0de496f c0de496f        a     1                 eth_plugin_prepare_finalize
c0de4978 c0de4978        a     2         obj/eth_plugin_handler.o:(.text.eth_plugin_prepare_provide_info)
c0de4978 c0de4978        0     1                 $t.3
c0de4979 c0de4979        a     1                 eth_plugin_prepare_provide_info
c0de4982 c0de4982       1c     2         obj/eth_plugin_handler.o:(.text.eth_plugin_prepare_query_contract_ID)
c0de4982 c0de4982        0     1                 $t.4
c0de4983 c0de4983       1c     1                 eth_plugin_prepare_query_contract_ID
c0de49a0 c0de49a0       78     4         obj/eth_plugin_handler.o:(.text.eth_plugin_prepare_query_contract_UI)
c0de49a0 c0de49a0        0     1                 $t.5
c0de49a1 c0de49a1       78     1                 eth_plugin_prepare_query_contract_UI
c0de4a14 c0de4a14        0     1                 $d.6
c0de4a18 c0de4a18       16     2         obj/eth_plugin_handler.o:(.text.allzeroes)
c0de4a18 c0de4a18        0     1                 $t.7
c0de4a19 c0de4a19       16     1                 allzeroes
c0de4a30 c0de4a30      158     4         obj/eth_plugin_handler.o:(.text.eth_plugin_perform_init)
c0de4a30 c0de4a30        0     1                 $t.8
c0de4a31 c0de4a31      158     1                 eth_plugin_perform_init
c0de4b78 c0de4b78        0     1                 $d.9
c0de4b88 c0de4b88      20c     4         obj/eth_plugin_handler.o:(.text.eth_plugin_call)
c0de4b88 c0de4b88        0     1                 $t.10
c0de4b89 c0de4b89      20c     1                 eth_plugin_call
c0de4d80 c0de4d80        0     1                 $d.11
c0de4d94 c0de4d94       12     2         obj/eth_plugin_internal.o:(.text.copy_address)
c0de4d94 c0de4d94        0     1                 $t.0
c0de4d95 c0de4d95       12     1                 copy_address
c0de4da6 c0de4da6        e     2         obj/eth_plugin_internal.o:(.text.copy_parameter)
c0de4da6 c0de4da6        0     1                 $t.1
c0de4da7 c0de4da7        e     1                 copy_parameter
c0de4db4 c0de4db4       20     4         obj/eth_plugin_ui.o:(.text.plugin_ui_start)
c0de4db4 c0de4db4        0     1                 $t.0
c0de4db5 c0de4db5       20     1                 plugin_ui_start
c0de4dd0 c0de4dd0        0     1                 $d.1
c0de4dd4 c0de4dd4       ec     4         obj/handle_check_address.o:(.text.handle_check_address)
c0de4dd4 c0de4dd4        0     1                 $t.0
c0de4dd5 c0de4dd5       ec     1                 handle_check_address
c0de4ebc c0de4ebc        0     1                 $d.1
c0de4ec0 c0de4ec0       7a     2         obj/handle_get_printable_amount.o:(.text.handle_get_printable_amount)
c0de4ec0 c0de4ec0        0     1                 $t.0
c0de4ec1 c0de4ec1       7a     1                 handle_get_printable_amount
c0de4f3c c0de4f3c       a8     4         obj/handle_swap_sign_transaction.o:(.text.copy_transaction_parameters)
c0de4f3c c0de4f3c        0     1                 $t.0
c0de4f3d c0de4f3d       a8     1                 copy_transaction_parameters
c0de4fe0 c0de4fe0        0     1                 $d.1
c0de4fe4 c0de4fe4       a0     4         obj/handle_swap_sign_transaction.o:(.text.handle_swap_sign_transaction)
c0de4fe4 c0de4fe4        0     1                 $t.2
c0de4fe5 c0de4fe5       a0     1                 handle_swap_sign_transaction
c0de5068 c0de5068        0     1                 $d.3
c0de5084 c0de5084       98     4         obj/ledger_ble.o:(.text.LEDGER_BLE_init)
c0de5084 c0de5084        0     1                 $t.0
c0de5085 c0de5085       98     1                 LEDGER_BLE_init
c0de5108 c0de5108        0     1                 $d.1
c0de511c c0de511c      274     4         obj/ledger_ble.o:(.text.init_mngr)
c0de511c c0de511c        0     1                 $t.2
c0de511d c0de511d      274     1                 init_mngr
c0de5374 c0de5374        0     1                 $d.3
c0de5390 c0de5390       4c     4         obj/ledger_ble.o:(.text.LEDGER_BLE_send)
c0de5390 c0de5390        0     1                 $t.4
c0de5391 c0de5391       4c     1                 LEDGER_BLE_send
c0de53d4 c0de53d4        0     1                 $d.5
c0de53dc c0de53dc      5bc     4         obj/ledger_ble.o:(.text.LEDGER_BLE_receive)
c0de53dc c0de53dc        0     1                 $t.6
c0de53dd c0de53dd      5bc     1                 LEDGER_BLE_receive
c0de57b4 c0de57b4        0     1                 $d.7
c0de57b8 c0de57b8        0     1                 $t.8
c0de57f8 c0de57f8        0     1                 $d.9
c0de5804 c0de5804        0     1                 $t.10
c0de5858 c0de5858        0     1                 $d.11
c0de587c c0de587c        0     1                 $t.12
c0de5960 c0de5960        0     1                 $d.13
c0de5998 c0de5998       48     4         obj/ledger_ble.o:(.text.hci_send_req)
c0de5998 c0de5998        0     1                 $t.14
c0de5999 c0de5999       48     1                 hci_send_req
c0de59dc c0de59dc        0     1                 $d.15
c0de59e0 c0de59e0        c     2         obj/ledger_ble.o:(.text.BLE_power)
c0de59e0 c0de59e0        0     1                 $t.16
c0de59e1 c0de59e1        c     1                 BLE_power
c0de59ec c0de59ec      174     4         obj/ledger_ble.o:(.text.configure_advertising_mngr)
c0de59ec c0de59ec        0     1                 $t.17
c0de59ed c0de59ed      174     1                 configure_advertising_mngr
c0de5b4c c0de5b4c        0     1                 $d.18
c0de5b60 c0de5b60       38     4         obj/ledger_ble.o:(.text.end_pairing_ux)
c0de5b60 c0de5b60        0     1                 $t.19
c0de5b61 c0de5b61       38     1                 end_pairing_ux
c0de5b90 c0de5b90        0     1                 $d.20
c0de5b98 c0de5b98        e     2         obj/ledger_ble.o:(.text.cx_rng_u32)
c0de5b98 c0de5b98        0     1                 $t.21
c0de5b99 c0de5b99        e     1                 cx_rng_u32
c0de5ba8 c0de5ba8       4c     4         obj/ledger_ble.o:(.text.rsp_user_pairing_passkey)
c0de5ba8 c0de5ba8        0     1                 $t.22
c0de5ba9 c0de5ba9       4c     1                 rsp_user_pairing_passkey
c0de5be8 c0de5be8        0     1                 $d.23
c0de5bf4 c0de5bf4       20     4         obj/ledger_ble.o:(.text.rsp_user_pairing_numeric_comparison)
c0de5bf4 c0de5bf4        0     1                 $t.24
c0de5bf5 c0de5bf5       20     1                 rsp_user_pairing_numeric_comparison
c0de5c10 c0de5c10        0     1                 $d.25
c0de5c14 c0de5c14       18     4         obj/ledger_protocol.o:(.text.LEDGER_PROTOCOL_init)
c0de5c14 c0de5c14        0     1                 $t.0
c0de5c15 c0de5c15       18     1                 LEDGER_PROTOCOL_init
c0de5c28 c0de5c28        0     1                 $d.1
c0de5c2c c0de5c2c      124     4         obj/ledger_protocol.o:(.text.LEDGER_PROTOCOL_rx)
c0de5c2c c0de5c2c        0     1                 $t.2
c0de5c2d c0de5c2d      124     1                 LEDGER_PROTOCOL_rx
c0de5d4c c0de5d4c        0     1                 $d.3
c0de5d50 c0de5d50       90     4         obj/ledger_protocol.o:(.text.LEDGER_PROTOCOL_tx)
c0de5d50 c0de5d50        0     1                 $t.4
c0de5d51 c0de5d51       90     1                 LEDGER_PROTOCOL_tx
c0de5ddc c0de5ddc        0     1                 $d.5
c0de5de0 c0de5de0       24     4         obj/logic_getEth2PublicKey.o:(.text.set_result_get_eth2_publicKey)
c0de5de0 c0de5de0        0     1                 $t.0
c0de5de1 c0de5de1       24     1                 set_result_get_eth2_publicKey
c0de5dfc c0de5dfc        0     1                 $d.1
c0de5e04 c0de5e04       54     4         obj/logic_getPublicKey.o:(.text.set_result_get_publicKey)
c0de5e04 c0de5e04        0     1                 $t.0
c0de5e05 c0de5e05       54     1                 set_result_get_publicKey
c0de5e50 c0de5e50        0     1                 $d.1
c0de5e58 c0de5e58       28     4         obj/logic_performPrivacyOperation.o:(.text.set_result_perform_privacy_operation)
c0de5e58 c0de5e58        0     1                 $t.0
c0de5e59 c0de5e59       28     1                 set_result_perform_privacy_operation
c0de5e78 c0de5e78        0     1                 $d.1
c0de5e80 c0de5e80       32     2         obj/logic_signTx.o:(.text.splitBinaryParameterPart)
c0de5e80 c0de5e80        0     1                 $t.0
c0de5e81 c0de5e81       32     1                 splitBinaryParameterPart
c0de5eb4 c0de5eb4      284     4         obj/logic_signTx.o:(.text.customProcessor)
c0de5eb4 c0de5eb4        0     1                 $t.1
c0de5eb5 c0de5eb5      284     1                 customProcessor
c0de6110 c0de6110        0     1                 $d.2
c0de6138 c0de6138       1a     2         obj/logic_signTx.o:(.text.to_uppercase)
c0de6138 c0de6138        0     1                 $t.3
c0de6139 c0de6139       1a     1                 to_uppercase
c0de6154 c0de6154       54     4         obj/logic_signTx.o:(.text.compareOrCopy)
c0de6154 c0de6154        0     1                 $t.4
c0de6155 c0de6155       54     1                 compareOrCopy
c0de61a0 c0de61a0        0     1                 $d.5
c0de61a8 c0de61a8       1e     2         obj/logic_signTx.o:(.text.reportFinalizeError)
c0de61a8 c0de61a8        0     1                 $t.6
c0de61a9 c0de61a9       1e     1                 reportFinalizeError
c0de61c8 c0de61c8       c4     4         obj/logic_signTx.o:(.text.prepareAndCopyFees)
c0de61c8 c0de61c8        0     1                 $t.7
c0de61c9 c0de61c9       c4     1                 prepareAndCopyFees
c0de6288 c0de6288        0     1                 $d.8
c0de628c c0de628c       24     4         obj/logic_signTx.o:(.text.prepareFeeDisplay)
c0de628c c0de628c        0     1                 $t.9
c0de628d c0de628d       24     1                 prepareFeeDisplay
c0de62a8 c0de62a8        0     1                 $d.10
c0de62b0 c0de62b0       40     4         obj/logic_signTx.o:(.text.prepareNetworkDisplay)
c0de62b0 c0de62b0        0     1                 $t.11
c0de62b1 c0de62b1       40     1                 prepareNetworkDisplay
c0de62ec c0de62ec        0     1                 $d.12
c0de62f0 c0de62f0      350     4         obj/logic_signTx.o:(.text.finalizeParsing)
c0de62f0 c0de62f0        0     1                 $t.13
c0de62f1 c0de62f1      350     1                 finalizeParsing
c0de661c c0de661c        0     1                 $d.14
c0de6640 c0de6640       24     4         obj/logic_stark_getPublicKey.o:(.text.set_result_get_stark_publicKey)
c0de6640 c0de6640        0     1                 $t.0
c0de6641 c0de6641       24     1                 set_result_get_stark_publicKey
c0de665c c0de665c        0     1                 $d.1
c0de6664 c0de6664       60     4         obj/main.o:(.text.reset_app_context)
c0de6664 c0de6664        0     1                 $t.0
c0de6665 c0de6665       60     1                 reset_app_context
c0de66a4 c0de66a4        0     1                 $d.1
c0de66c4 c0de66c4       28     4         obj/main.o:(.text.ui_idle)
c0de66c4 c0de66c4        0     1                 $t.2
c0de66c5 c0de66c5       28     1                 ui_idle
c0de66e4 c0de66e4        0     1                 $d.3
c0de66ec c0de66ec       14     4         obj/main.o:(.text.ui_warning_contract_data)
c0de66ec c0de66ec        0     1                 $t.4
c0de66ed c0de66ed       14     1                 ui_warning_contract_data
c0de66fc c0de66fc        0     1                 $d.5
c0de6700 c0de6700       14     4         obj/main.o:(.text.ui_warning_oracle_data)
c0de6700 c0de6700        0     1                 $t.6
c0de6701 c0de6701       14     1                 ui_warning_oracle_data
c0de6710 c0de6710        0     1                 $d.7
c0de6714 c0de6714       1c     4         obj/main.o:(.text.io_seproxyhal_send_status)
c0de6714 c0de6714        0     1                 $t.9
c0de6715 c0de6715       1c     1                 io_seproxyhal_send_status
c0de672c c0de672c        0     1                 $d.10
c0de6730 c0de6730       68     4         obj/main.o:(.text.format_signature_out)
c0de6730 c0de6730        0     1                 $t.11
c0de6731 c0de6731       68     1                 format_signature_out
c0de6794 c0de6794        0     1                 $d.12
c0de6798 c0de6798       48     4         obj/main.o:(.text.io_exchange_al)
c0de6798 c0de6798        0     1                 $t.13
c0de6799 c0de6799       48     1                 io_exchange_al
c0de67dc c0de67dc        0     1                 $d.14
c0de67e0 c0de67e0       50     4         obj/main.o:(.text.getKnownToken)
c0de67e0 c0de67e0        0     1                 $t.15
c0de67e1 c0de67e1       50     1                 getKnownToken
c0de682c c0de682c        0     1                 $d.16
c0de6830 c0de6830       64     4         obj/main.o:(.text.handleGetWalletId)
c0de6830 c0de6830        0     1                 $t.17
c0de6831 c0de6831       64     1                 handleGetWalletId
c0de688c c0de688c        0     1                 $d.18
c0de6894 c0de6894       18     2         obj/main.o:(.text.cx_ecfp_generate_pair)
c0de6894 c0de6894        0     1                 $t.19
c0de6895 c0de6895       18     1                 cx_ecfp_generate_pair
c0de68ac c0de68ac      2c8     4         obj/main.o:(.text.handleApdu)
c0de68ac c0de68ac        0     1                 $t.20
c0de68ad c0de68ad      2c8     1                 handleApdu
c0de6b6c c0de6b6c        0     1                 $d.21
c0de6b74 c0de6b74       d0     4         obj/main.o:(.text.app_main)
c0de6b74 c0de6b74        0     1                 $t.22
c0de6b75 c0de6b75       d0     1                 app_main
c0de6c3c c0de6c3c        0     1                 $d.23
c0de6c44 c0de6c44        8     2         obj/main.o:(.text.io_seproxyhal_display)
c0de6c44 c0de6c44        0     1                 $t.24
c0de6c45 c0de6c45        8     1                 io_seproxyhal_display
c0de6c4c c0de6c4c      528     4         obj/main.o:(.text.io_event)
c0de6c4c c0de6c4c        0     1                 $t.25
c0de6c4d c0de6c4d      528     1                 io_event
c0de7028 c0de7028        0     1                 $d.26
c0de7038 c0de7038        0     1                 $t.27
c0de716c c0de716c        0     1                 $d.28
c0de7174 c0de7174       40     2         obj/main.o:(.text.app_exit)
c0de7174 c0de7174        0     1                 $t.29
c0de7175 c0de7175       40     1                 app_exit
c0de71b4 c0de71b4      104     4         obj/main.o:(.text.coin_main)
c0de71b4 c0de71b4        0     1                 $t.32
c0de71b5 c0de71b5      104     1                 coin_main
c0de7298 c0de7298        0     1                 $d.33
c0de72b8 c0de72b8       b8     4         obj/main.o:(.text.library_main)
c0de72b8 c0de72b8        0     1                 $t.34
c0de72b9 c0de72b9       b8     1                 library_main
c0de736c c0de736c        0     1                 $d.35
c0de7370 c0de7370       44     4         obj/network.o:(.text.get_chain_id)
c0de7370 c0de7370        0     1                 $t.0
c0de7371 c0de7371       44     1                 get_chain_id
c0de73ac c0de73ac        0     1                 $d.1
c0de73b4 c0de73b4       34     4         obj/network.o:(.text.get_network)
c0de73b4 c0de73b4        0     1                 $t.2
c0de73b5 c0de73b5       34     1                 get_network
c0de73e4 c0de73e4        0     1                 $d.3
c0de73e8 c0de73e8       14     2         obj/network.o:(.text.get_network_name)
c0de73e8 c0de73e8        0     1                 $t.4
c0de73e9 c0de73e9       14     1                 get_network_name
c0de73fc c0de73fc       20     4         obj/network.o:(.text.get_network_ticker)
c0de73fc c0de73fc        0     1                 $t.5
c0de73fd c0de73fd       20     1                 get_network_ticker
c0de7418 c0de7418        0     1                 $d.6
c0de741c c0de741c        a     2         obj/os.o:(.text.os_boot)
c0de741c c0de741c        0     1                 $t.0
c0de741d c0de741d        a     1                 os_boot
c0de7426 c0de7426        c     2         obj/os.o:(.text.os_longjmp)
c0de7426 c0de7426        0     1                 $t.3
c0de7427 c0de7427        c     1                 os_longjmp
c0de7434 c0de7434       14     4         obj/os_io_seproxyhal.o:(.text.io_seproxyhal_general_status)
c0de7434 c0de7434        0     1                 $t.0
c0de7435 c0de7435       14     1                 io_seproxyhal_general_status
c0de7444 c0de7444        0     1                 $d.1
c0de7448 c0de7448       7c     4         obj/os_io_seproxyhal.o:(.text.io_seproxyhal_handle_usb_event)
c0de7448 c0de7448        0     1                 $t.4
c0de7449 c0de7449       7c     1                 io_seproxyhal_handle_usb_event
c0de74b8 c0de74b8        0     1                 $d.5
c0de74c4 c0de74c4       1c     4         obj/os_io_seproxyhal.o:(.text.io_seproxyhal_get_ep_rx_size)
c0de74c4 c0de74c4        0     1                 $t.6
c0de74c5 c0de74c5       1c     1                 io_seproxyhal_get_ep_rx_size
c0de74dc c0de74dc        0     1                 $d.7
c0de74e0 c0de74e0       78     4         obj/os_io_seproxyhal.o:(.text.io_seproxyhal_handle_usb_ep_xfer_event)
c0de74e0 c0de74e0        0     1                 $t.8
c0de74e1 c0de74e1       78     1                 io_seproxyhal_handle_usb_ep_xfer_event
c0de754c c0de754c        0     1                 $d.9
c0de7558 c0de7558       54     4         obj/os_io_seproxyhal.o:(.text.io_usb_send_ep)
c0de7558 c0de7558        0     1                 $t.10
c0de7559 c0de7559       54     1                 io_usb_send_ep
c0de75a4 c0de75a4        0     1                 $d.11
c0de75ac c0de75ac       10     2         obj/os_io_seproxyhal.o:(.text.io_usb_send_apdu_data)
c0de75ac c0de75ac        0     1                 $t.12
c0de75ad c0de75ad       10     1                 io_usb_send_apdu_data
c0de75bc c0de75bc       10     2         obj/os_io_seproxyhal.o:(.text.io_usb_send_apdu_data_ep0x83)
c0de75bc c0de75bc        0     1                 $t.13
c0de75bd c0de75bd       10     1                 io_usb_send_apdu_data_ep0x83
c0de75cc c0de75cc       4c     4         obj/os_io_seproxyhal.o:(.text.io_seproxyhal_handle_capdu_event)
c0de75cc c0de75cc        0     1                 $t.14
c0de75cd c0de75cd       4c     1                 io_seproxyhal_handle_capdu_event
c0de760c c0de760c        0     1                 $d.15
c0de7618 c0de7618       bc     4         obj/os_io_seproxyhal.o:(.text.io_seproxyhal_handle_event)
c0de7618 c0de7618        0     1                 $t.16
c0de7619 c0de7619       bc     1                 io_seproxyhal_handle_event
c0de76cc c0de76cc        0     1                 $d.17
c0de76d4 c0de76d4       54     4         obj/os_io_seproxyhal.o:(.text.io_seproxyhal_init)
c0de76d4 c0de76d4        0     1                 $t.18
c0de76d5 c0de76d5       54     1                 io_seproxyhal_init
c0de771c c0de771c        0     1                 $d.19
c0de7728 c0de7728        2     2         obj/os_io_seproxyhal.o:(.text.io_seproxyhal_init_ux)
c0de7728 c0de7728        0     1                 $t.20
c0de7729 c0de7729        2     1                 io_seproxyhal_init_ux
c0de772c c0de772c       14     4         obj/os_io_seproxyhal.o:(.text.io_seproxyhal_init_button)
c0de772c c0de772c        0     1                 $t.21
c0de772d c0de772d       14     1                 io_seproxyhal_init_button
c0de773c c0de773c        0     1                 $d.22
c0de7740 c0de7740       3e     2         obj/os_io_seproxyhal.o:(.text.io_seproxyhal_display_icon)
c0de7740 c0de7740        0     1                 $t.24
c0de7741 c0de7741       3e     1                 io_seproxyhal_display_icon
c0de777e c0de777e       4e     2         obj/os_io_seproxyhal.o:(.text.io_seproxyhal_display_default)
c0de777e c0de777e        0     1                 $t.25
c0de777f c0de777f       4e     1                 io_seproxyhal_display_default
c0de77cc c0de77cc       74     4         obj/os_io_seproxyhal.o:(.text.io_seproxyhal_button_push)
c0de77cc c0de77cc        0     1                 $t.28
c0de77cd c0de77cd       74     1                 io_seproxyhal_button_push
c0de7838 c0de7838        0     1                 $d.29
c0de7840 c0de7840       4c     4         obj/os_io_seproxyhal.o:(.text.os_io_seproxyhal_get_app_name_and_version)
c0de7840 c0de7840        0     1                 $t.44
c0de7841 c0de7841       4c     1                 os_io_seproxyhal_get_app_name_and_version
c0de7888 c0de7888        0     1                 $d.45
c0de788c c0de788c      2d0     4         obj/os_io_seproxyhal.o:(.text.io_exchange)
c0de788c c0de788c        0     1                 $t.46
c0de788d c0de788d      2d0     1                 io_exchange
c0de7b44 c0de7b44        0     1                 $d.47
c0de7b5c c0de7b5c       44     4         obj/os_io_seproxyhal.o:(.text.os_io_seph_recv_and_process)
c0de7b5c c0de7b5c        0     1                 $t.48
c0de7b5d c0de7b5d       44     1                 os_io_seph_recv_and_process
c0de7b98 c0de7b98        0     1                 $d.49
c0de7ba0 c0de7ba0       30     4         obj/os_io_seproxyhal.o:(.text.io_seproxyhal_io_heartbeat)
c0de7ba0 c0de7ba0        0     1                 $t.52
c0de7ba1 c0de7ba1       30     1                 io_seproxyhal_io_heartbeat
c0de7bcc c0de7bcc        0     1                 $d.53
c0de7bd0 c0de7bd0      18c     4         obj/os_io_usb.o:(.text.io_usb_hid_receive)
c0de7bd0 c0de7bd0        0     1                 $t.0
c0de7bd1 c0de7bd1      18c     1                 io_usb_hid_receive
c0de7d40 c0de7d40        0     1                 $d.1
c0de7d5c c0de7d5c       20     4         obj/os_io_usb.o:(.text.io_usb_hid_init)
c0de7d5c c0de7d5c        0     1                 $t.2
c0de7d5d c0de7d5d       20     1                 io_usb_hid_init
c0de7d70 c0de7d70        0     1                 $d.3
c0de7d7c c0de7d7c       d8     4         obj/os_io_usb.o:(.text.io_usb_hid_sent)
c0de7d7c c0de7d7c        0     1                 $t.4
c0de7d7d c0de7d7d       d8     1                 io_usb_hid_sent
c0de7e3c c0de7e3c        0     1                 $d.5
c0de7e54 c0de7e54       38     4         obj/os_io_usb.o:(.text.io_usb_hid_send)
c0de7e54 c0de7e54        0     1                 $t.6
c0de7e55 c0de7e55       38     1                 io_usb_hid_send
c0de7e78 c0de7e78        0     1                 $d.7
c0de7e8c c0de7e8c      388     4         obj/os_printf.o:(.text.snprintf)
c0de7e8c c0de7e8c        0     1                 $t.0
c0de7e8d c0de7e8d      388     1                 snprintf
c0de8204 c0de8204        0     1                 $d.1
c0de8214 c0de8214        c     2         obj/osal.o:(.text.Osal_MemCpy)
c0de8214 c0de8214        0     1                 $t.0
c0de8215 c0de8215        c     1                 Osal_MemCpy
c0de8220 c0de8220       12     2         obj/osal.o:(.text.Osal_MemSet)
c0de8220 c0de8220        0     1                 $t.1
c0de8221 c0de8221       12     1                 Osal_MemSet
c0de8234 c0de8234       10     4         obj/pic.o:(.text.pic_internal)
c0de8234 c0de8234        0     1                 $t.0
c0de8235 c0de8235        c     1                 pic_internal
c0de8240 c0de8240        0     1                 $d.2
c0de8244 c0de8244       38     4         obj/pic.o:(.text.pic)
c0de8244 c0de8244        0     1                 $t.1
c0de8245 c0de8245       26     1                 pic
c0de826c c0de826c        0     1                 $d.3
c0de827c c0de827c       12     2         obj/poorstream.o:(.text.poorstream_init)
c0de827c c0de827c        0     1                 $t.0
c0de827d c0de827d       12     1                 poorstream_init
c0de828e c0de828e       32     2         obj/poorstream.o:(.text.poorstream_flush)
c0de828e c0de828e        0     1                 $t.1
c0de828f c0de828f       32     1                 poorstream_flush
c0de82c0 c0de82c0       96     2         obj/poorstream.o:(.text.poorstream_write_bits)
c0de82c0 c0de82c0        0     1                 $t.2
c0de82c1 c0de82c1       96     1                 poorstream_write_bits
c0de8358 c0de8358       8c     4         obj/stark_crypto.o:(.text.starkDerivePrivateKey)
c0de8358 c0de8358        0     1                 $t.0
c0de8359 c0de8359       8c     1                 starkDerivePrivateKey
c0de83d4 c0de83d4        0     1                 $d.1
c0de83e4 c0de83e4       a8     4         obj/stark_crypto.o:(.text.stark_get_amount_string)
c0de83e4 c0de83e4        0     1                 $t.2
c0de83e5 c0de83e5       a8     1                 stark_get_amount_string
c0de8488 c0de8488        0     1                 $d.3
c0de848c c0de848c       94     4         obj/stark_utils.o:(.text.accum_ec_mul)
c0de848c c0de848c        0     1                 $t.0
c0de848d c0de848d       94     1                 accum_ec_mul
c0de851c c0de851c        0     1                 $d.1
c0de8520 c0de8520       18     2         obj/stark_utils.o:(.text.allzeroes)
c0de8520 c0de8520        0     1                 $t.2
c0de8521 c0de8521       18     1                 allzeroes
c0de8538 c0de8538       60     4         obj/stark_utils.o:(.text.pedersen)
c0de8538 c0de8538        0     1                 $t.3
c0de8539 c0de8539       60     1                 pedersen
c0de8590 c0de8590        0     1                 $d.4
c0de8598 c0de8598       68     4         obj/stark_utils.o:(.text.shift_stark_hash)
c0de8598 c0de8598        0     1                 $t.5
c0de8599 c0de8599       68     1                 shift_stark_hash
c0de85fc c0de85fc        0     1                 $d.6
c0de8600 c0de8600       78     4         obj/stark_utils.o:(.text.stark_sign)
c0de8600 c0de8600        0     1                 $t.7
c0de8601 c0de8601       78     1                 stark_sign
c0de8674 c0de8674        0     1                 $d.8
c0de8678 c0de8678      180     4         obj/stark_utils.o:(.text.compute_token_id)
c0de8678 c0de8678        0     1                 $t.9
c0de8679 c0de8679      180     1                 compute_token_id
c0de87d8 c0de87d8        0     1                 $d.10
c0de87f8 c0de87f8       14     2         obj/stark_utils.o:(.text.cx_keccak_init)
c0de87f8 c0de87f8        0     1                 $t.11
c0de87f9 c0de87f9       14     1                 cx_keccak_init
c0de880c c0de880c       22     2         obj/stark_utils.o:(.text.cx_hash)
c0de880c c0de880c        0     1                 $t.12
c0de880d c0de880d       22     1                 cx_hash
c0de8830 c0de8830       30     4         obj/starkware_plugin.o:(.text.is_deversify_contract)
c0de8830 c0de8830        0     1                 $t.0
c0de8831 c0de8831       30     1                 is_deversify_contract
c0de885c c0de885c        0     1                 $d.1
c0de8860 c0de8860       88     4         obj/starkware_plugin.o:(.text.starkware_verify_asset_id)
c0de8860 c0de8860        0     1                 $t.2
c0de8861 c0de8861       88     1                 starkware_verify_asset_id
c0de88dc c0de88dc        0     1                 $d.3
c0de88e8 c0de88e8       40     4         obj/starkware_plugin.o:(.text.starkware_verify_nft_token_id)
c0de88e8 c0de88e8        0     1                 $t.8
c0de88e9 c0de88e9       40     1                 starkware_verify_nft_token_id
c0de8920 c0de8920        0     1                 $d.9
c0de8928 c0de8928       24     4         obj/starkware_plugin.o:(.text.starkware_print_vault_id)
c0de8928 c0de8928        0     1                 $t.10
c0de8929 c0de8929       24     1                 starkware_print_vault_id
c0de8948 c0de8948        0     1                 $d.11
c0de894c c0de894c       2c     4         obj/starkware_plugin.o:(.text.starkware_print_stark_key)
c0de894c c0de894c        0     1                 $t.12
c0de894d c0de894d       2c     1                 starkware_print_stark_key
c0de8974 c0de8974        0     1                 $d.13
c0de8978 c0de8978       e0     4         obj/starkware_plugin.o:(.text.starkware_print_amount)
c0de8978 c0de8978        0     1                 $t.14
c0de8979 c0de8979       e0     1                 starkware_print_amount
c0de8a44 c0de8a44        0     1                 $d.15
c0de8a58 c0de8a58       38     4         obj/starkware_plugin.o:(.text.starkware_print_ticker)
c0de8a58 c0de8a58        0     1                 $t.16
c0de8a59 c0de8a59       38     1                 starkware_print_ticker
c0de8a84 c0de8a84        0     1                 $d.17
c0de8a90 c0de8a90       5c     4         obj/starkware_plugin.o:(.text.starkware_print_asset_contract)
c0de8a90 c0de8a90        0     1                 $t.18
c0de8a91 c0de8a91       5c     1                 starkware_print_asset_contract
c0de8ad8 c0de8ad8        0     1                 $d.19
c0de8aec c0de8aec       94     4         obj/starkware_plugin.o:(.text.starkware_get_source_address)
c0de8aec c0de8aec        0     1                 $t.20
c0de8aed c0de8aed       94     1                 starkware_get_source_address
c0de8b74 c0de8b74        0     1                 $d.21
c0de8b80 c0de8b80      5d8     4         obj/starkware_plugin.o:(.text.starkware_plugin_call)
c0de8b80 c0de8b80        0     1                 $t.22
c0de8b81 c0de8b81      5d8     1                 starkware_plugin_call
c0de8fa0 c0de8fa0        0     1                 $d.23
c0de8fa4 c0de8fa4        0     1                 $t.24
c0de9014 c0de9014        0     1                 $d.25
c0de9024 c0de9024        0     1                 $t.26
c0de90c8 c0de90c8        0     1                 $d.27
c0de9158 c0de9158       16     2         obj/starkware_plugin.o:(.text.U4BE)
c0de9158 c0de9158        0     1                 $t.28
c0de9159 c0de9159       16     1                 U4BE
c0de916e c0de916e        e     2         obj/svc_call.o:(.text)
c0de916e c0de916e        0     1                 $t
c0de916f c0de916f        0     1                 SVC_Call
c0de9176 c0de9176        0     1                 exception
c0de917c c0de917c        4     2         obj/svc_cx_call.o:(.text)
c0de917c c0de917c        0     1                 $t
c0de917d c0de917d        0     1                 SVC_cx_call
c0de9180 c0de9180       18     4         obj/syscalls.o:(.text.get_api_level)
c0de9180 c0de9180        0     1                 $t.0
c0de9181 c0de9181       18     1                 get_api_level
c0de9194 c0de9194        0     1                 $d.1
c0de9198 c0de9198       14     4         obj/syscalls.o:(.text.halt)
c0de9198 c0de9198        0     1                 $t.2
c0de9199 c0de9199       14     1                 halt
c0de91a8 c0de91a8        0     1                 $d.3
c0de91ac c0de91ac       18     4         obj/syscalls.o:(.text.nvm_write)
c0de91ac c0de91ac        0     1                 $t.4
c0de91ad c0de91ad       18     1                 nvm_write
c0de91c0 c0de91c0        0     1                 $d.5
c0de91c4 c0de91c4       18     4         obj/syscalls.o:(.text.cx_ecdomain_parameters_length)
c0de91c4 c0de91c4        0     1                 $t.122
c0de91c5 c0de91c5       18     1                 cx_ecdomain_parameters_length
c0de91d8 c0de91d8        0     1                 $d.123
c0de91dc c0de91dc       18     4         obj/syscalls.o:(.text.os_perso_isonboarded)
c0de91dc c0de91dc        0     1                 $t.190
c0de91dd c0de91dd       18     1                 os_perso_isonboarded
c0de91f0 c0de91f0        0     1                 $d.191
c0de91f4 c0de91f4       20     4         obj/syscalls.o:(.text.os_perso_derive_node_bip32)
c0de91f4 c0de91f4        0     1                 $t.194
c0de91f5 c0de91f5       20     1                 os_perso_derive_node_bip32
c0de9210 c0de9210        0     1                 $d.195
c0de9214 c0de9214       18     4         obj/syscalls.o:(.text.os_perso_derive_eip2333)
c0de9214 c0de9214        0     1                 $t.198
c0de9215 c0de9215       18     1                 os_perso_derive_eip2333
c0de9228 c0de9228        0     1                 $d.199
c0de922c c0de922c       18     4         obj/syscalls.o:(.text.os_global_pin_is_validated)
c0de922c c0de922c        0     1                 $t.216
c0de922d c0de922d       18     1                 os_global_pin_is_validated
c0de9240 c0de9240        0     1                 $d.217
c0de9244 c0de9244       18     4         obj/syscalls.o:(.text.os_ux)
c0de9244 c0de9244        0     1                 $t.228
c0de9245 c0de9245       18     1                 os_ux
c0de9258 c0de9258        0     1                 $d.229
c0de925c c0de925c       18     4         obj/syscalls.o:(.text.os_lib_call)
c0de925c c0de925c        0     1                 $t.232
c0de925d c0de925d       18     1                 os_lib_call
c0de9270 c0de9270        0     1                 $d.233
c0de9274 c0de9274       14     4         obj/syscalls.o:(.text.os_lib_end)
c0de9274 c0de9274        0     1                 $t.234
c0de9275 c0de9275       14     1                 os_lib_end
c0de9284 c0de9284        0     1                 $d.235
c0de9288 c0de9288       14     4         obj/syscalls.o:(.text.os_flags)
c0de9288 c0de9288        0     1                 $t.236
c0de9289 c0de9289       14     1                 os_flags
c0de9298 c0de9298        0     1                 $d.237
c0de929c c0de929c       18     4         obj/syscalls.o:(.text.os_serial)
c0de929c c0de929c        0     1                 $t.240
c0de929d c0de929d       18     1                 os_serial
c0de92b0 c0de92b0        0     1                 $d.241
c0de92b4 c0de92b4       18     4         obj/syscalls.o:(.text.os_setting_get)
c0de92b4 c0de92b4        0     1                 $t.248
c0de92b5 c0de92b5       18     1                 os_setting_get
c0de92c8 c0de92c8        0     1                 $d.249
c0de92cc c0de92cc       18     4         obj/syscalls.o:(.text.os_registry_get_current_app_tag)
c0de92cc c0de92cc        0     1                 $t.256
c0de92cd c0de92cd       18     1                 os_registry_get_current_app_tag
c0de92e0 c0de92e0        0     1                 $d.257
c0de92e4 c0de92e4       18     4         obj/syscalls.o:(.text.os_sched_exit)
c0de92e4 c0de92e4        0     1                 $t.266
c0de92e5 c0de92e5       18     1                 os_sched_exit
c0de92f8 c0de92f8        0     1                 $d.267
c0de92fc c0de92fc       14     4         obj/syscalls.o:(.text.io_seph_send)
c0de92fc c0de92fc        0     1                 $t.274
c0de92fd c0de92fd       14     1                 io_seph_send
c0de930c c0de930c        0     1                 $d.275
c0de9310 c0de9310       14     4         obj/syscalls.o:(.text.io_seph_is_status_sent)
c0de9310 c0de9310        0     1                 $t.276
c0de9311 c0de9311       14     1                 io_seph_is_status_sent
c0de9320 c0de9320        0     1                 $d.277
c0de9324 c0de9324       18     4         obj/syscalls.o:(.text.io_seph_recv)
c0de9324 c0de9324        0     1                 $t.278
c0de9325 c0de9325       18     1                 io_seph_recv
c0de9338 c0de9338        0     1                 $d.279
c0de933c c0de933c       14     4         obj/syscalls.o:(.text.try_context_get)
c0de933c c0de933c        0     1                 $t.284
c0de933d c0de933d       14     1                 try_context_get
c0de934c c0de934c        0     1                 $d.285
c0de9350 c0de9350       18     4         obj/syscalls.o:(.text.try_context_set)
c0de9350 c0de9350        0     1                 $t.286
c0de9351 c0de9351       18     1                 try_context_set
c0de9364 c0de9364        0     1                 $d.287
c0de9368 c0de9368       1c     4         obj/syscalls.o:(.text.os_sched_last_status)
c0de9368 c0de9368        0     1                 $t.288
c0de9369 c0de9369       1c     1                 os_sched_last_status
c0de9380 c0de9380        0     1                 $d.289
c0de9384 c0de9384       14     4         obj/syscalls.o:(.text.screen_update)
c0de9384 c0de9384        0     1                 $t.308
c0de9385 c0de9385       14     1                 screen_update
c0de9394 c0de9394        0     1                 $d.309
c0de9398 c0de9398       30     4         obj/syscalls.o:(.text.bagl_hal_draw_bitmap_within_rect)
c0de9398 c0de9398        0     1                 $t.312
c0de9399 c0de9399       30     1                 bagl_hal_draw_bitmap_within_rect
c0de93c4 c0de93c4        0     1                 $d.313
c0de93c8 c0de93c8       20     4         obj/syscalls.o:(.text.bagl_hal_draw_rect)
c0de93c8 c0de93c8        0     1                 $t.314
c0de93c9 c0de93c9       20     1                 bagl_hal_draw_rect
c0de93e4 c0de93e4        0     1                 $d.315
c0de93e8 c0de93e8       18     4         obj/syscalls.o:(.text.os_ux_get_status)
c0de93e8 c0de93e8        0     1                 $t.318
c0de93e9 c0de93e9       18     1                 os_ux_get_status
c0de93fc c0de93fc        0     1                 $d.319
c0de9400 c0de9400      11c     4         obj/u2f_impl.o:(.text.u2f_apdu_sign)
c0de9400 c0de9400        0     1                 $t.2
c0de9401 c0de9401      11c     1                 u2f_apdu_sign
c0de94f8 c0de94f8        0     1                 $d.3
c0de951c c0de951c       d8     4         obj/u2f_impl.o:(.text.u2f_handle_cmd_init)
c0de951c c0de951c        0     1                 $t.8
c0de951d c0de951d       d8     1                 u2f_handle_cmd_init
c0de95f0 c0de95f0        0     1                 $d.9
c0de95f4 c0de95f4        e     2         obj/u2f_impl.o:(.text.u2f_handle_cmd_ping)
c0de95f4 c0de95f4        0     1                 $t.10
c0de95f5 c0de95f5        e     1                 u2f_handle_cmd_ping
c0de9604 c0de9604       a8     4         obj/u2f_impl.o:(.text.u2f_handle_cmd_msg)
c0de9604 c0de9604        0     1                 $t.11
c0de9605 c0de9605       a8     1                 u2f_handle_cmd_msg
c0de9694 c0de9694        0     1                 $d.12
c0de96ac c0de96ac       3a     2         obj/u2f_impl.o:(.text.u2f_message_complete)
c0de96ac c0de96ac        0     1                 $t.13
c0de96ad c0de96ad       3a     1                 u2f_message_complete
c0de96e8 c0de96e8       44     4         obj/u2f_io.o:(.text.u2f_io_send)
c0de96e8 c0de96e8        0     1                 $t.0
c0de96e9 c0de96e9       44     1                 u2f_io_send
c0de9728 c0de9728        0     1                 $d.1
c0de972c c0de972c       18     2         obj/u2f_transport.o:(.text.u2f_transport_init)
c0de972c c0de972c        0     1                 $t.1
c0de972d c0de972d       18     1                 u2f_transport_init
c0de9744 c0de9744       f8     4         obj/u2f_transport.o:(.text.u2f_transport_sent)
c0de9744 c0de9744        0     1                 $t.2
c0de9745 c0de9745       f8     1                 u2f_transport_sent
c0de9834 c0de9834        0     1                 $d.3
c0de983c c0de983c       24     2         obj/u2f_transport.o:(.text.u2f_message_repliable)
c0de983c c0de983c        0     1                 $t.4
c0de983d c0de983d       24     1                 u2f_message_repliable
c0de9860 c0de9860       40     4         obj/u2f_transport.o:(.text.u2f_transport_send_usb_user_presence_required)
c0de9860 c0de9860        0     1                 $t.5
c0de9861 c0de9861       40     1                 u2f_transport_send_usb_user_presence_required
c0de989c c0de989c        0     1                 $d.6
c0de98a0 c0de98a0       34     4         obj/u2f_transport.o:(.text.u2f_transport_send_wink)
c0de98a0 c0de98a0        0     1                 $t.7
c0de98a1 c0de98a1       34     1                 u2f_transport_send_wink
c0de98d0 c0de98d0        0     1                 $d.8
c0de98d4 c0de98d4       d8     2         obj/u2f_transport.o:(.text.u2f_transport_receive_fakeChannel)
c0de98d4 c0de98d4        0     1                 $t.9
c0de98d5 c0de98d5       d8     1                 u2f_transport_receive_fakeChannel
c0de99ac c0de99ac      2f4     4         obj/u2f_transport.o:(.text.u2f_transport_received)
c0de99ac c0de99ac        0     1                 $t.10
c0de99ad c0de99ad      2f4     1                 u2f_transport_received
c0de9c9c c0de9c9c        0     1                 $d.11
c0de9ca0 c0de9ca0       30     4         obj/u2f_transport.o:(.text.u2f_transport_error)
c0de9ca0 c0de9ca0        0     1                 $t.12
c0de9ca1 c0de9ca1       30     1                 u2f_transport_error
c0de9ccc c0de9ccc        0     1                 $d.13
c0de9cd0 c0de9cd0       1c     2         obj/u2f_transport.o:(.text.u2f_is_channel_broadcast)
c0de9cd0 c0de9cd0        0     1                 $t.14
c0de9cd1 c0de9cd1       1c     1                 u2f_is_channel_broadcast
c0de9cec c0de9cec       1a     2         obj/u2f_transport.o:(.text.u2f_is_channel_forbidden)
c0de9cec c0de9cec        0     1                 $t.15
c0de9ced c0de9ced       1a     1                 u2f_is_channel_forbidden
c0de9d06 c0de9d06       28     2         obj/u2f_transport.o:(.text.u2f_message_set_autoreply_wait_user_presence)
c0de9d06 c0de9d06        0     1                 $t.16
c0de9d07 c0de9d07       28     1                 u2f_message_set_autoreply_wait_user_presence
c0de9d30 c0de9d30       54     4         obj/u2f_transport.o:(.text.u2f_message_reply)
c0de9d30 c0de9d30        0     1                 $t.17
c0de9d31 c0de9d31       54     1                 u2f_message_reply
c0de9d80 c0de9d80        0     1                 $d.18
c0de9d84 c0de9d84       34     4         obj/ui_common_getEth2PublicKey.o:(.text.io_seproxyhal_touch_eth2_address_ok)
c0de9d84 c0de9d84        0     1                 $t.0
c0de9d85 c0de9d85       34     1                 io_seproxyhal_touch_eth2_address_ok
c0de9db4 c0de9db4        0     1                 $d.1
c0de9db8 c0de9db8       34     4         obj/ui_common_getPublicKey.o:(.text.io_seproxyhal_touch_address_ok)
c0de9db8 c0de9db8        0     1                 $t.0
c0de9db9 c0de9db9       34     1                 io_seproxyhal_touch_address_ok
c0de9de8 c0de9de8        0     1                 $d.1
c0de9dec c0de9dec       28     4         obj/ui_common_getPublicKey.o:(.text.io_seproxyhal_touch_address_cancel)
c0de9dec c0de9dec        0     1                 $t.2
c0de9ded c0de9ded       28     1                 io_seproxyhal_touch_address_cancel
c0de9e10 c0de9e10        0     1                 $d.3
c0de9e14 c0de9e14       34     4         obj/ui_common_performPrivacyOperation.o:(.text.io_seproxyhal_touch_privacy_ok)
c0de9e14 c0de9e14        0     1                 $t.0
c0de9e15 c0de9e15       34     1                 io_seproxyhal_touch_privacy_ok
c0de9e44 c0de9e44        0     1                 $d.1
c0de9e48 c0de9e48       28     4         obj/ui_common_performPrivacyOperation.o:(.text.io_seproxyhal_touch_privacy_cancel)
c0de9e48 c0de9e48        0     1                 $t.2
c0de9e49 c0de9e49       28     1                 io_seproxyhal_touch_privacy_cancel
c0de9e6c c0de9e6c        0     1                 $d.3
c0de9e70 c0de9e70       c4     4         obj/ui_common_signMessage.o:(.text.io_seproxyhal_touch_signMessage_ok)
c0de9e70 c0de9e70        0     1                 $t.0
c0de9e71 c0de9e71       c4     1                 io_seproxyhal_touch_signMessage_ok
c0de9f28 c0de9f28        0     1                 $d.1
c0de9f34 c0de9f34       28     4         obj/ui_common_signMessage.o:(.text.io_seproxyhal_touch_signMessage_cancel)
c0de9f34 c0de9f34        0     1                 $t.2
c0de9f35 c0de9f35       28     1                 io_seproxyhal_touch_signMessage_cancel
c0de9f58 c0de9f58        0     1                 $d.3
c0de9f5c c0de9f5c      118     4         obj/ui_common_signMessage712.o:(.text.io_seproxyhal_touch_signMessage712_v0_ok)
c0de9f5c c0de9f5c        0     1                 $t.0
c0de9f5d c0de9f5d      118     1                 io_seproxyhal_touch_signMessage712_v0_ok
c0dea05c c0dea05c        0     1                 $d.1
c0dea074 c0dea074       30     4         obj/ui_common_signMessage712.o:(.text.cx_hash)
c0dea074 c0dea074        0     1                 $t.2
c0dea075 c0dea075       30     1                 cx_hash
c0dea0a0 c0dea0a0        0     1                 $d.3
c0dea0a4 c0dea0a4       28     4         obj/ui_common_signMessage712.o:(.text.io_seproxyhal_touch_signMessage712_v0_cancel)
c0dea0a4 c0dea0a4        0     1                 $t.4
c0dea0a5 c0dea0a5       28     1                 io_seproxyhal_touch_signMessage712_v0_cancel
c0dea0c8 c0dea0c8        0     1                 $d.5
c0dea0cc c0dea0cc      120     4         obj/ui_common_signTx.o:(.text.io_seproxyhal_touch_tx_ok)
c0dea0cc c0dea0cc        0     1                 $t.0
c0dea0cd c0dea0cd      120     1                 io_seproxyhal_touch_tx_ok
c0dea1d4 c0dea1d4        0     1                 $d.1
c0dea1ec c0dea1ec       28     4         obj/ui_common_signTx.o:(.text.io_seproxyhal_touch_tx_cancel)
c0dea1ec c0dea1ec        0     1                 $t.2
c0dea1ed c0dea1ed       28     1                 io_seproxyhal_touch_tx_cancel
c0dea210 c0dea210        0     1                 $d.3
c0dea214 c0dea214       44     4         obj/ui_common_signTx.o:(.text.io_seproxyhal_touch_data_ok)
c0dea214 c0dea214        0     1                 $t.4
c0dea215 c0dea215       44     1                 io_seproxyhal_touch_data_ok
c0dea254 c0dea254        0     1                 $d.5
c0dea258 c0dea258       18     4         obj/ui_common_signTx.o:(.text.io_seproxyhal_touch_data_cancel)
c0dea258 c0dea258        0     1                 $t.6
c0dea259 c0dea259       18     1                 io_seproxyhal_touch_data_cancel
c0dea26c c0dea26c        0     1                 $d.7
c0dea270 c0dea270       34     4         obj/ui_common_stark_getPublicKey.o:(.text.io_seproxyhal_touch_stark_pubkey_ok)
c0dea270 c0dea270        0     1                 $t.0
c0dea271 c0dea271       34     1                 io_seproxyhal_touch_stark_pubkey_ok
c0dea2a0 c0dea2a0        0     1                 $d.1
c0dea2a4 c0dea2a4       80     4         obj/ui_common_stark_sign.o:(.text.io_seproxyhal_touch_stark_ok)
c0dea2a4 c0dea2a4        0     1                 $t.0
c0dea2a5 c0dea2a5       80     1                 io_seproxyhal_touch_stark_ok
c0dea318 c0dea318        0     1                 $d.1
c0dea324 c0dea324       9c     4         obj/ui_common_stark_unsafe_sign.o:(.text.io_seproxyhal_touch_stark_unsafe_sign_ok)
c0dea324 c0dea324        0     1                 $t.0
c0dea325 c0dea325       9c     1                 io_seproxyhal_touch_stark_unsafe_sign_ok
c0dea3b0 c0dea3b0        0     1                 $d.1
c0dea3c0 c0dea3c0        a     2         obj/ui_flow.o:(.text.ux_idle_flow_3_step_validateinit)
c0dea3c0 c0dea3c0        0     1                 $t.0
c0dea3c1 c0dea3c1        a     1                 ux_idle_flow_3_step_validateinit
c0dea3cc c0dea3cc       c4     4         obj/ui_flow.o:(.text.display_settings)
c0dea3cc c0dea3cc        0     1                 $t.1
c0dea3cd c0dea3cd       c4     1                 display_settings
c0dea46c c0dea46c        0     1                 $d.2
c0dea490 c0dea490        6     2         obj/ui_flow.o:(.text.ux_idle_flow_4_step_validateinit)
c0dea490 c0dea490        0     1                 $t.3
c0dea491 c0dea491        6     1                 ux_idle_flow_4_step_validateinit
c0dea496 c0dea496        8     2         obj/ui_flow.o:(.text.ux_settings_flow_1_step_validateinit)
c0dea496 c0dea496        0     1                 $t.4
c0dea497 c0dea497        8     1                 ux_settings_flow_1_step_validateinit
c0dea4a0 c0dea4a0       38     4         obj/ui_flow.o:(.text.switch_settings_blind_signing)
c0dea4a0 c0dea4a0        0     1                 $t.5
c0dea4a1 c0dea4a1       38     1                 switch_settings_blind_signing
c0dea4d0 c0dea4d0        0     1                 $d.6
c0dea4d8 c0dea4d8        8     2         obj/ui_flow.o:(.text.ux_settings_flow_2_step_validateinit)
c0dea4d8 c0dea4d8        0     1                 $t.7
c0dea4d9 c0dea4d9        8     1                 ux_settings_flow_2_step_validateinit
c0dea4e0 c0dea4e0       38     4         obj/ui_flow.o:(.text.switch_settings_display_data)
c0dea4e0 c0dea4e0        0     1                 $t.8
c0dea4e1 c0dea4e1       38     1                 switch_settings_display_data
c0dea510 c0dea510        0     1                 $d.9
c0dea518 c0dea518        8     2         obj/ui_flow.o:(.text.ux_settings_flow_3_step_validateinit)
c0dea518 c0dea518        0     1                 $t.10
c0dea519 c0dea519        8     1                 ux_settings_flow_3_step_validateinit
c0dea520 c0dea520       38     4         obj/ui_flow.o:(.text.switch_settings_display_nonce)
c0dea520 c0dea520        0     1                 $t.11
c0dea521 c0dea521       38     1                 switch_settings_display_nonce
c0dea550 c0dea550        0     1                 $d.12
c0dea558 c0dea558        8     2         obj/ui_flow.o:(.text.ux_settings_flow_4_step_validateinit)
c0dea558 c0dea558        0     1                 $t.13
c0dea559 c0dea559        8     1                 ux_settings_flow_4_step_validateinit
c0dea560 c0dea560       38     4         obj/ui_flow.o:(.text.switch_settings_require_oracle)
c0dea560 c0dea560        0     1                 $t.14
c0dea561 c0dea561       38     1                 switch_settings_require_oracle
c0dea590 c0dea590        0     1                 $d.15
c0dea598 c0dea598        8     2         obj/ui_flow.o:(.text.ux_settings_flow_5_step_validateinit)
c0dea598 c0dea598        0     1                 $t.16
c0dea599 c0dea599        8     1                 ux_settings_flow_5_step_validateinit
c0dea5a0 c0dea5a0        8     2         obj/ui_flow.o:(.text.ux_warning_contract_data_step_validateinit)
c0dea5a0 c0dea5a0        0     1                 $t.17
c0dea5a1 c0dea5a1        8     1                 ux_warning_contract_data_step_validateinit
c0dea5a8 c0dea5a8        8     2         obj/ui_flow.o:(.text.ux_warning_oracle_data_step_validateinit)
c0dea5a8 c0dea5a8        0     1                 $t.18
c0dea5a9 c0dea5a9        8     1                 ux_warning_oracle_data_step_validateinit
c0dea5b0 c0dea5b0       2c     4         obj/ui_flow_getEth2PublicKey.o:(.text.prepare_eth2_public_key)
c0dea5b0 c0dea5b0        0     1                 $t.0
c0dea5b1 c0dea5b1       2c     1                 prepare_eth2_public_key
c0dea5d0 c0dea5d0        0     1                 $d.1
c0dea5dc c0dea5dc       10     2         obj/ui_flow_getEth2PublicKey.o:(.text.ux_display_public_eth2_flow_2_step_init)
c0dea5dc c0dea5dc        0     1                 $t.2
c0dea5dd c0dea5dd       10     1                 ux_display_public_eth2_flow_2_step_init
c0dea5ec c0dea5ec        a     2         obj/ui_flow_getEth2PublicKey.o:(.text.ux_display_public_eth2_flow_3_step_validateinit)
c0dea5ec c0dea5ec        0     1                 $t.3
c0dea5ed c0dea5ed        a     1                 ux_display_public_eth2_flow_3_step_validateinit
c0dea5f6 c0dea5f6        a     2         obj/ui_flow_getEth2PublicKey.o:(.text.ux_display_public_eth2_flow_4_step_validateinit)
c0dea5f6 c0dea5f6        0     1                 $t.4
c0dea5f7 c0dea5f7        a     1                 ux_display_public_eth2_flow_4_step_validateinit
c0dea600 c0dea600        a     2         obj/ui_flow_getPublicKey.o:(.text.ux_display_public_flow_3_step_validateinit)
c0dea600 c0dea600        0     1                 $t.0
c0dea601 c0dea601        a     1                 ux_display_public_flow_3_step_validateinit
c0dea60a c0dea60a        a     2         obj/ui_flow_getPublicKey.o:(.text.ux_display_public_flow_4_step_validateinit)
c0dea60a c0dea60a        0     1                 $t.1
c0dea60b c0dea60b        a     1                 ux_display_public_flow_4_step_validateinit
c0dea614 c0dea614        a     2         obj/ui_flow_performPrivacyOperation.o:(.text.ux_display_privacy_public_key_flow_4_step_validateinit)
c0dea614 c0dea614        0     1                 $t.0
c0dea615 c0dea615        a     1                 ux_display_privacy_public_key_flow_4_step_validateinit
c0dea61e c0dea61e        a     2         obj/ui_flow_performPrivacyOperation.o:(.text.ux_display_privacy_public_key_flow_5_step_validateinit)
c0dea61e c0dea61e        0     1                 $t.1
c0dea61f c0dea61f        a     1                 ux_display_privacy_public_key_flow_5_step_validateinit
c0dea628 c0dea628        a     2         obj/ui_flow_signMessage.o:(.text.ux_sign_flow_3_step_validateinit)
c0dea628 c0dea628        0     1                 $t.0
c0dea629 c0dea629        a     1                 ux_sign_flow_3_step_validateinit
c0dea632 c0dea632        a     2         obj/ui_flow_signMessage.o:(.text.ux_sign_flow_4_step_validateinit)
c0dea632 c0dea632        0     1                 $t.1
c0dea633 c0dea633        a     1                 ux_sign_flow_4_step_validateinit
c0dea63c c0dea63c       2c     4         obj/ui_flow_signMessage712.o:(.text.prepare_domain_hash_v0)
c0dea63c c0dea63c        0     1                 $t.0
c0dea63d c0dea63d       2c     1                 prepare_domain_hash_v0
c0dea65c c0dea65c        0     1                 $d.1
c0dea668 c0dea668       2c     4         obj/ui_flow_signMessage712.o:(.text.prepare_message_hash_v0)
c0dea668 c0dea668        0     1                 $t.2
c0dea669 c0dea669       2c     1                 prepare_message_hash_v0
c0dea688 c0dea688        0     1                 $d.3
c0dea694 c0dea694       10     2         obj/ui_flow_signMessage712.o:(.text.ux_sign_712_v0_flow_2_step_init)
c0dea694 c0dea694        0     1                 $t.4
c0dea695 c0dea695       10     1                 ux_sign_712_v0_flow_2_step_init
c0dea6a4 c0dea6a4       10     2         obj/ui_flow_signMessage712.o:(.text.ux_sign_712_v0_flow_3_step_init)
c0dea6a4 c0dea6a4        0     1                 $t.5
c0dea6a5 c0dea6a5       10     1                 ux_sign_712_v0_flow_3_step_init
c0dea6b4 c0dea6b4        a     2         obj/ui_flow_signMessage712.o:(.text.ux_sign_712_v0_flow_4_step_validateinit)
c0dea6b4 c0dea6b4        0     1                 $t.6
c0dea6b5 c0dea6b5        a     1                 ux_sign_712_v0_flow_4_step_validateinit
c0dea6be c0dea6be        a     2         obj/ui_flow_signMessage712.o:(.text.ux_sign_712_v0_flow_5_step_validateinit)
c0dea6be c0dea6be        0     1                 $t.7
c0dea6bf c0dea6bf        a     1                 ux_sign_712_v0_flow_5_step_validateinit
c0dea6c8 c0dea6c8        a     2         obj/ui_flow_signTx.o:(.text.ux_confirm_selector_flow_3_step_validateinit)
c0dea6c8 c0dea6c8        0     1                 $t.0
c0dea6c9 c0dea6c9        a     1                 ux_confirm_selector_flow_3_step_validateinit
c0dea6d2 c0dea6d2        a     2         obj/ui_flow_signTx.o:(.text.ux_confirm_selector_flow_4_step_validateinit)
c0dea6d2 c0dea6d2        0     1                 $t.1
c0dea6d3 c0dea6d3        a     1                 ux_confirm_selector_flow_4_step_validateinit
c0dea6dc c0dea6dc        a     2         obj/ui_flow_signTx.o:(.text.ux_confirm_parameter_flow_3_step_validateinit)
c0dea6dc c0dea6dc        0     1                 $t.2
c0dea6dd c0dea6dd        a     1                 ux_confirm_parameter_flow_3_step_validateinit
c0dea6e6 c0dea6e6        a     2         obj/ui_flow_signTx.o:(.text.ux_confirm_parameter_flow_4_step_validateinit)
c0dea6e6 c0dea6e6        0     1                 $t.3
c0dea6e7 c0dea6e7        a     1                 ux_confirm_parameter_flow_4_step_validateinit
c0dea6f0 c0dea6f0       10     2         obj/ui_flow_signTx.o:(.text.ux_plugin_approval_id_step_init)
c0dea6f0 c0dea6f0        0     1                 $t.4
c0dea6f1 c0dea6f1       10     1                 ux_plugin_approval_id_step_init
c0dea700 c0dea700        a     2         obj/ui_flow_signTx.o:(.text.ux_plugin_approval_before_step_init)
c0dea700 c0dea700        0     1                 $t.5
c0dea701 c0dea701        a     1                 ux_plugin_approval_before_step_init
c0dea70a c0dea70a        a     2         obj/ui_flow_signTx.o:(.text.ux_plugin_approval_after_step_init)
c0dea70a c0dea70a        0     1                 $t.6
c0dea70b c0dea70b        a     1                 ux_plugin_approval_after_step_init
c0dea714 c0dea714        a     2         obj/ui_flow_signTx.o:(.text.ux_approval_accept_step_validateinit)
c0dea714 c0dea714        0     1                 $t.7
c0dea715 c0dea715        a     1                 ux_approval_accept_step_validateinit
c0dea71e c0dea71e        a     2         obj/ui_flow_signTx.o:(.text.ux_approval_reject_step_validateinit)
c0dea71e c0dea71e        0     1                 $t.8
c0dea71f c0dea71f        a     1                 ux_approval_reject_step_validateinit
c0dea728 c0dea728      158     4         obj/ui_flow_signTx.o:(.text.ux_approve_tx)
c0dea728 c0dea728        0     1                 $t.9
c0dea729 c0dea729      158     1                 ux_approve_tx
c0dea830 c0dea830        0     1                 $d.10
c0dea880 c0dea880        a     2         obj/ui_flow_stark_getPublicKey.o:(.text.ux_display_stark_public_flow_3_step_validateinit)
c0dea880 c0dea880        0     1                 $t.0
c0dea881 c0dea881        a     1                 ux_display_stark_public_flow_3_step_validateinit
c0dea88a c0dea88a        a     2         obj/ui_flow_stark_getPublicKey.o:(.text.ux_display_stark_public_flow_4_step_validateinit)
c0dea88a c0dea88a        0     1                 $t.1
c0dea88b c0dea88b        a     1                 ux_display_stark_public_flow_4_step_validateinit
c0dea894 c0dea894       2c     4         obj/ui_flow_stark_sign.o:(.text.stark_sign_display_master_account)
c0dea894 c0dea894        0     1                 $t.0
c0dea895 c0dea895       2c     1                 stark_sign_display_master_account
c0dea8b4 c0dea8b4        0     1                 $d.1
c0dea8c0 c0dea8c0       2c     4         obj/ui_flow_stark_sign.o:(.text.stark_sign_display_condition_fact)
c0dea8c0 c0dea8c0        0     1                 $t.2
c0dea8c1 c0dea8c1       2c     1                 stark_sign_display_condition_fact
c0dea8e0 c0dea8e0        0     1                 $d.3
c0dea8ec c0dea8ec        a     2         obj/ui_flow_stark_sign.o:(.text.ux_stark_limit_order_7_step_validateinit)
c0dea8ec c0dea8ec        0     1                 $t.4
c0dea8ed c0dea8ed        a     1                 ux_stark_limit_order_7_step_validateinit
c0dea8f6 c0dea8f6        a     2         obj/ui_flow_stark_sign.o:(.text.ux_stark_limit_order_8_step_validateinit)
c0dea8f6 c0dea8f6        0     1                 $t.5
c0dea8f7 c0dea8f7        a     1                 ux_stark_limit_order_8_step_validateinit
c0dea900 c0dea900        a     2         obj/ui_flow_stark_sign.o:(.text.ux_stark_transfer_6_step_validateinit)
c0dea900 c0dea900        0     1                 $t.6
c0dea901 c0dea901        a     1                 ux_stark_transfer_6_step_validateinit
c0dea90a c0dea90a        a     2         obj/ui_flow_stark_sign.o:(.text.ux_stark_transfer_7_step_validateinit)
c0dea90a c0dea90a        0     1                 $t.7
c0dea90b c0dea90b        a     1                 ux_stark_transfer_7_step_validateinit
c0dea914 c0dea914       10     2         obj/ui_flow_stark_sign.o:(.text.ux_stark_conditional_transfer_4_step_init)
c0dea914 c0dea914        0     1                 $t.8
c0dea915 c0dea915       10     1                 ux_stark_conditional_transfer_4_step_init
c0dea924 c0dea924       40     4         obj/ui_flow_stark_sign.o:(.text.ux_stark_conditional_transfer_8_step_init)
c0dea924 c0dea924        0     1                 $t.9
c0dea925 c0dea925       40     1                 ux_stark_conditional_transfer_8_step_init
c0dea954 c0dea954        0     1                 $d.10
c0dea964 c0dea964       10     2         obj/ui_flow_stark_sign.o:(.text.ux_stark_conditional_transfer_9_step_init)
c0dea964 c0dea964        0     1                 $t.11
c0dea965 c0dea965       10     1                 ux_stark_conditional_transfer_9_step_init
c0dea974 c0dea974       2c     4         obj/ui_flow_stark_unsafe_sign.o:(.text.stark_unsafe_sign_display_account)
c0dea974 c0dea974        0     1                 $t.0
c0dea975 c0dea975       2c     1                 stark_unsafe_sign_display_account
c0dea994 c0dea994        0     1                 $d.1
c0dea9a0 c0dea9a0       2c     4         obj/ui_flow_stark_unsafe_sign.o:(.text.stark_unsafe_sign_display_hash)
c0dea9a0 c0dea9a0        0     1                 $t.2
c0dea9a1 c0dea9a1       2c     1                 stark_unsafe_sign_display_hash
c0dea9c0 c0dea9c0        0     1                 $d.3
c0dea9cc c0dea9cc       10     2         obj/ui_flow_stark_unsafe_sign.o:(.text.ux_stark_unsafe_sign_2_step_init)
c0dea9cc c0dea9cc        0     1                 $t.4
c0dea9cd c0dea9cd       10     1                 ux_stark_unsafe_sign_2_step_init
c0dea9dc c0dea9dc       10     2         obj/ui_flow_stark_unsafe_sign.o:(.text.ux_stark_unsafe_sign_3_step_init)
c0dea9dc c0dea9dc        0     1                 $t.5
c0dea9dd c0dea9dd       10     1                 ux_stark_unsafe_sign_3_step_init
c0dea9ec c0dea9ec        a     2         obj/ui_flow_stark_unsafe_sign.o:(.text.ux_stark_unsafe_sign_4_step_validateinit)
c0dea9ec c0dea9ec        0     1                 $t.6
c0dea9ed c0dea9ed        a     1                 ux_stark_unsafe_sign_4_step_validateinit
c0dea9f6 c0dea9f6        a     2         obj/ui_flow_stark_unsafe_sign.o:(.text.ux_stark_unsafe_sign_5_step_validateinit)
c0dea9f6 c0dea9f6        0     1                 $t.7
c0dea9f7 c0dea9f7        a     1                 ux_stark_unsafe_sign_5_step_validateinit
c0deaa00 c0deaa00       38     4         obj/ui_plugin.o:(.text.plugin_ui_get_id)
c0deaa00 c0deaa00        0     1                 $t.0
c0deaa01 c0deaa01       38     1                 plugin_ui_get_id
c0deaa34 c0deaa34        0     1                 $d.1
c0deaa38 c0deaa38       48     4         obj/ui_plugin.o:(.text.plugin_ui_get_item)
c0deaa38 c0deaa38        0     1                 $t.2
c0deaa39 c0deaa39       48     1                 plugin_ui_get_item
c0deaa78 c0deaa78        0     1                 $d.3
c0deaa80 c0deaa80       a8     4         obj/ui_plugin.o:(.text.display_next_plugin_item)
c0deaa80 c0deaa80        0     1                 $t.4
c0deaa81 c0deaa81       a8     1                 display_next_plugin_item
c0deab20 c0deab20        0     1                 $d.5
c0deab28 c0deab28       1c     2         obj/uint256.o:(.text.readu128BE)
c0deab28 c0deab28        0     1                 $t.0
c0deab29 c0deab29       1c     1                 readu128BE
c0deab44 c0deab44       2c     2         obj/uint256.o:(.text.readUint64BE)
c0deab44 c0deab44        0     1                 $t.1
c0deab45 c0deab45       2c     1                 readUint64BE
c0deab70 c0deab70       18     2         obj/uint256.o:(.text.readu256BE)
c0deab70 c0deab70        0     1                 $t.2
c0deab71 c0deab71       18     1                 readu256BE
c0deab88 c0deab88       8c     2         obj/uint256.o:(.text.shiftl128)
c0deab88 c0deab88        0     1                 $t.9
c0deab89 c0deab89       8c     1                 shiftl128
c0deac14 c0deac14      124     2         obj/uint256.o:(.text.shiftl256)
c0deac14 c0deac14        0     1                 $t.10
c0deac15 c0deac15      124     1                 shiftl256
c0dead38 c0dead38       92     2         obj/uint256.o:(.text.shiftr128)
c0dead38 c0dead38        0     1                 $t.11
c0dead39 c0dead39       92     1                 shiftr128
c0deadca c0deadca       5a     2         obj/uint256.o:(.text.add128)
c0deadca c0deadca        0     1                 $t.12
c0deadcb c0deadcb       5a     1                 add128
c0deae24 c0deae24      100     2         obj/uint256.o:(.text.shiftr256)
c0deae24 c0deae24        0     1                 $t.13
c0deae25 c0deae25      100     1                 shiftr256
c0deaf24 c0deaf24       6e     2         obj/uint256.o:(.text.bits256)
c0deaf24 c0deaf24        0     1                 $t.15
c0deaf25 c0deaf25       6e     1                 bits256
c0deaf92 c0deaf92       4a     2         obj/uint256.o:(.text.equal256)
c0deaf92 c0deaf92        0     1                 $t.17
c0deaf93 c0deaf93       4a     1                 equal256
c0deafdc c0deafdc       5a     2         obj/uint256.o:(.text.gt256)
c0deafdc c0deafdc        0     1                 $t.19
c0deafdd c0deafdd       5a     1                 gt256
c0deb036 c0deb036       1c     2         obj/uint256.o:(.text.gte256)
c0deb036 c0deb036        0     1                 $t.21
c0deb037 c0deb037       1c     1                 gte256
c0deb052 c0deb052       70     2         obj/uint256.o:(.text.add256)
c0deb052 c0deb052        0     1                 $t.22
c0deb053 c0deb053       70     1                 add256
c0deb0c2 c0deb0c2       56     2         obj/uint256.o:(.text.minus128)
c0deb0c2 c0deb0c2        0     1                 $t.23
c0deb0c3 c0deb0c3       56     1                 minus128
c0deb118 c0deb118       ac     2         obj/uint256.o:(.text.minus256)
c0deb118 c0deb118        0     1                 $t.24
c0deb119 c0deb119       ac     1                 minus256
c0deb1c4 c0deb1c4       1e     2         obj/uint256.o:(.text.write_u64_be)
c0deb1c4 c0deb1c4        0     1                 $t.28
c0deb1c5 c0deb1c5       1e     1                 write_u64_be
c0deb1e2 c0deb1e2       22     2         obj/uint256.o:(.text.read_u64_be)
c0deb1e2 c0deb1e2        0     1                 $t.29
c0deb1e3 c0deb1e3       22     1                 read_u64_be
c0deb204 c0deb204       8c     2         obj/uint256.o:(.text.mul256)
c0deb204 c0deb204        0     1                 $t.30
c0deb205 c0deb205       8c     1                 mul256
c0deb290 c0deb290      188     2         obj/uint256.o:(.text.divmod256)
c0deb290 c0deb290        0     1                 $t.32
c0deb291 c0deb291      188     1                 divmod256
c0deb418 c0deb418       1a     2         obj/uint256.o:(.text.reverseString)
c0deb418 c0deb418        0     1                 $t.35
c0deb419 c0deb419       1a     1                 reverseString
c0deb434 c0deb434       98     4         obj/uint256.o:(.text.tostring256)
c0deb434 c0deb434        0     1                 $t.36
c0deb435 c0deb435       98     1                 tostring256
c0deb4c8 c0deb4c8        0     1                 $d.37
c0deb4cc c0deb4cc       18     4         obj/usbd_conf.o:(.text.USBD_LL_Init)
c0deb4cc c0deb4cc        0     1                 $t.0
c0deb4cd c0deb4cd       18     1                 USBD_LL_Init
c0deb4dc c0deb4dc        0     1                 $d.1
c0deb4e4 c0deb4e4       28     4         obj/usbd_conf.o:(.text.USBD_LL_DeInit)
c0deb4e4 c0deb4e4        0     1                 $t.2
c0deb4e5 c0deb4e5       28     1                 USBD_LL_DeInit
c0deb508 c0deb508        0     1                 $d.3
c0deb50c c0deb50c       34     2         obj/usbd_conf.o:(.text.USBD_LL_Start)
c0deb50c c0deb50c        0     1                 $t.4
c0deb50d c0deb50d       34     1                 USBD_LL_Start
c0deb540 c0deb540       1e     2         obj/usbd_conf.o:(.text.USBD_LL_Stop)
c0deb540 c0deb540        0     1                 $t.5
c0deb541 c0deb541       1e     1                 USBD_LL_Stop
c0deb560 c0deb560       5c     4         obj/usbd_conf.o:(.text.USBD_LL_OpenEP)
c0deb560 c0deb560        0     1                 $t.6
c0deb561 c0deb561       5c     1                 USBD_LL_OpenEP
c0deb5b4 c0deb5b4        0     1                 $d.7
c0deb5bc c0deb5bc       48     4         obj/usbd_conf.o:(.text.USBD_LL_StallEP)
c0deb5bc c0deb5bc        0     1                 $t.10
c0deb5bd c0deb5bd       48     1                 USBD_LL_StallEP
c0deb5fc c0deb5fc        0     1                 $d.11
c0deb604 c0deb604       48     4         obj/usbd_conf.o:(.text.USBD_LL_ClearStallEP)
c0deb604 c0deb604        0     1                 $t.12
c0deb605 c0deb605       48     1                 USBD_LL_ClearStallEP
c0deb644 c0deb644        0     1                 $d.13
c0deb64c c0deb64c       24     4         obj/usbd_conf.o:(.text.USBD_LL_IsStallEP)
c0deb64c c0deb64c        0     1                 $t.14
c0deb64d c0deb64d       24     1                 USBD_LL_IsStallEP
c0deb668 c0deb668        0     1                 $d.15
c0deb670 c0deb670       20     2         obj/usbd_conf.o:(.text.USBD_LL_SetUSBAddress)
c0deb670 c0deb670        0     1                 $t.16
c0deb671 c0deb671       20     1                 USBD_LL_SetUSBAddress
c0deb690 c0deb690       2e     2         obj/usbd_conf.o:(.text.USBD_LL_Transmit)
c0deb690 c0deb690        0     1                 $t.17
c0deb691 c0deb691       2e     1                 USBD_LL_Transmit
c0deb6be c0deb6be       22     2         obj/usbd_conf.o:(.text.USBD_LL_PrepareReceive)
c0deb6be c0deb6be        0     1                 $t.18
c0deb6bf c0deb6bf       22     1                 USBD_LL_PrepareReceive
c0deb6e0 c0deb6e0       30     2         obj/usbd_core.o:(.text.USBD_Init)
c0deb6e0 c0deb6e0        0     1                 $t.0
c0deb6e1 c0deb6e1       30     1                 USBD_Init
c0deb710 c0deb710       38     2         obj/usbd_core.o:(.text.USBD_DeInit)
c0deb710 c0deb710        0     1                 $t.1
c0deb711 c0deb711       38     1                 USBD_DeInit
c0deb748 c0deb748       1a     2         obj/usbd_core.o:(.text.USBD_RegisterClassForInterface)
c0deb748 c0deb748        0     1                 $t.3
c0deb749 c0deb749       1a     1                 USBD_RegisterClassForInterface
c0deb762 c0deb762        a     2         obj/usbd_core.o:(.text.USBD_Start)
c0deb762 c0deb762        0     1                 $t.4
c0deb763 c0deb763        a     1                 USBD_Start
c0deb76c c0deb76c       36     2         obj/usbd_core.o:(.text.USBD_SetClassConfig)
c0deb76c c0deb76c        0     1                 $t.7
c0deb76d c0deb76d       36     1                 USBD_SetClassConfig
c0deb7a2 c0deb7a2       36     2         obj/usbd_core.o:(.text.USBD_ClrClassConfig)
c0deb7a2 c0deb7a2        0     1                 $t.8
c0deb7a3 c0deb7a3       36     1                 USBD_ClrClassConfig
c0deb7d8 c0deb7d8       5c     2         obj/usbd_core.o:(.text.USBD_LL_SetupStage)
c0deb7d8 c0deb7d8        0     1                 $t.9
c0deb7d9 c0deb7d9       5c     1                 USBD_LL_SetupStage
c0deb834 c0deb834       ac     2         obj/usbd_core.o:(.text.USBD_LL_DataOutStage)
c0deb834 c0deb834        0     1                 $t.10
c0deb835 c0deb835       ac     1                 USBD_LL_DataOutStage
c0deb8e0 c0deb8e0       e2     2         obj/usbd_core.o:(.text.USBD_LL_DataInStage)
c0deb8e0 c0deb8e0        0     1                 $t.11
c0deb8e1 c0deb8e1       e2     1                 USBD_LL_DataInStage
c0deb9c2 c0deb9c2       40     2         obj/usbd_core.o:(.text.USBD_LL_Reset)
c0deb9c2 c0deb9c2        0     1                 $t.12
c0deb9c3 c0deb9c3       40     1                 USBD_LL_Reset
c0deba02 c0deba02        6     2         obj/usbd_core.o:(.text.USBD_LL_SetSpeed)
c0deba02 c0deba02        0     1                 $t.13
c0deba03 c0deba03        6     1                 USBD_LL_SetSpeed
c0deba08 c0deba08        4     2         obj/usbd_core.o:(.text.USBD_LL_Suspend)
c0deba08 c0deba08        0     1                 $t.14
c0deba09 c0deba09        4     1                 USBD_LL_Suspend
c0deba0c c0deba0c        4     2         obj/usbd_core.o:(.text.USBD_LL_Resume)
c0deba0c c0deba0c        0     1                 $t.15
c0deba0d c0deba0d        4     1                 USBD_LL_Resume
c0deba10 c0deba10       3e     2         obj/usbd_core.o:(.text.USBD_LL_SOF)
c0deba10 c0deba10        0     1                 $t.16
c0deba11 c0deba11       3e     1                 USBD_LL_SOF
c0deba4e c0deba4e       16     2         obj/usbd_ctlreq.o:(.text.usbd_is_valid_intf)
c0deba4e c0deba4e        0     1                 $t.0
c0deba4f c0deba4f       16     1                 usbd_is_valid_intf
c0deba64 c0deba64       52     2         obj/usbd_ctlreq.o:(.text.USBD_StdDevReq)
c0deba64 c0deba64        0     1                 $t.1
c0deba65 c0deba65       52     1                 USBD_StdDevReq
c0debab6 c0debab6       ee     2         obj/usbd_ctlreq.o:(.text.USBD_GetDescriptor)
c0debab6 c0debab6        0     1                 $t.2
c0debab7 c0debab7       ee     1                 USBD_GetDescriptor
c0debba4 c0debba4       46     2         obj/usbd_ctlreq.o:(.text.USBD_SetAddress)
c0debba4 c0debba4        0     1                 $t.3
c0debba5 c0debba5       46     1                 USBD_SetAddress
c0debbea c0debbea       6e     2         obj/usbd_ctlreq.o:(.text.USBD_SetConfig)
c0debbea c0debbea        0     1                 $t.4
c0debbeb c0debbeb       6e     1                 USBD_SetConfig
c0debc58 c0debc58       2e     2         obj/usbd_ctlreq.o:(.text.USBD_GetConfig)
c0debc58 c0debc58        0     1                 $t.5
c0debc59 c0debc59       2e     1                 USBD_GetConfig
c0debc86 c0debc86       48     2         obj/usbd_ctlreq.o:(.text.USBD_GetStatus)
c0debc86 c0debc86        0     1                 $t.6
c0debc87 c0debc87       48     1                 USBD_GetStatus
c0debcce c0debcce       3a     2         obj/usbd_ctlreq.o:(.text.USBD_SetFeature)
c0debcce c0debcce        0     1                 $t.7
c0debccf c0debccf       3a     1                 USBD_SetFeature
c0debd08 c0debd08       52     2         obj/usbd_ctlreq.o:(.text.USBD_ClrFeature)
c0debd08 c0debd08        0     1                 $t.8
c0debd09 c0debd09       52     1                 USBD_ClrFeature
c0debd5a c0debd5a       48     2         obj/usbd_ctlreq.o:(.text.USBD_StdItfReq)
c0debd5a c0debd5a        0     1                 $t.10
c0debd5b c0debd5b       48     1                 USBD_StdItfReq
c0debda2 c0debda2      102     2         obj/usbd_ctlreq.o:(.text.USBD_StdEPReq)
c0debda2 c0debda2        0     1                 $t.11
c0debda3 c0debda3      102     1                 USBD_StdEPReq
c0debea4 c0debea4       28     2         obj/usbd_ctlreq.o:(.text.USBD_ParseSetupRequest)
c0debea4 c0debea4        0     1                 $t.12
c0debea5 c0debea5       28     1                 USBD_ParseSetupRequest
c0debecc c0debecc       14     2         obj/usbd_ctlreq.o:(.text.USBD_CtlStall)
c0debecc c0debecc        0     1                 $t.13
c0debecd c0debecd       14     1                 USBD_CtlStall
c0debee0 c0debee0       90     2         obj/usbd_hid.o:(.text.USBD_HID_Setup)
c0debee0 c0debee0        0     1                 $t.0
c0debee1 c0debee1       90     1                 USBD_HID_Setup
c0debf70 c0debf70       2e     2         obj/usbd_hid.o:(.text.USBD_HID_Init)
c0debf70 c0debf70        0     1                 $t.1
c0debf71 c0debf71       2e     1                 USBD_HID_Init
c0debf9e c0debf9e        4     2         obj/usbd_hid.o:(.text.USBD_HID_DeInit)
c0debf9e c0debf9e        0     1                 $t.2
c0debf9f c0debf9f        4     1                 USBD_HID_DeInit
c0debfa4 c0debfa4       38     4         obj/usbd_impl.o:(.text.USBD_HID_GetHidDescriptor_impl)
c0debfa4 c0debfa4        0     1                 $t.0
c0debfa5 c0debfa5       38     1                 USBD_HID_GetHidDescriptor_impl
c0debfd0 c0debfd0        0     1                 $d.1
c0debfdc c0debfdc       68     4         obj/usbd_impl.o:(.text.USBD_HID_GetReportDescriptor_impl)
c0debfdc c0debfdc        0     1                 $t.2
c0debfdd c0debfdd       68     1                 USBD_HID_GetReportDescriptor_impl
c0dec038 c0dec038        0     1                 $d.3
c0dec044 c0dec044       2e     2         obj/usbd_impl.o:(.text.USBD_U2F_Init)
c0dec044 c0dec044        0     1                 $t.4
c0dec045 c0dec045       2e     1                 USBD_U2F_Init
c0dec074 c0dec074       1c     4         obj/usbd_impl.o:(.text.USBD_U2F_DataIn_impl)
c0dec074 c0dec074        0     1                 $t.5
c0dec075 c0dec075       1c     1                 USBD_U2F_DataIn_impl
c0dec08c c0dec08c        0     1                 $d.6
c0dec090 c0dec090       30     4         obj/usbd_impl.o:(.text.USBD_U2F_DataOut_impl)
c0dec090 c0dec090        0     1                 $t.7
c0dec091 c0dec091       30     1                 USBD_U2F_DataOut_impl
c0dec0bc c0dec0bc        0     1                 $d.8
c0dec0c0 c0dec0c0       18     4         obj/usbd_impl.o:(.text.USBD_HID_DataIn_impl)
c0dec0c0 c0dec0c0        0     1                 $t.9
c0dec0c1 c0dec0c1       18     1                 USBD_HID_DataIn_impl
c0dec0d4 c0dec0d4        0     1                 $d.10
c0dec0d8 c0dec0d8       54     4         obj/usbd_impl.o:(.text.USBD_HID_DataOut_impl)
c0dec0d8 c0dec0d8        0     1                 $t.11
c0dec0d9 c0dec0d9       54     1                 USBD_HID_DataOut_impl
c0dec120 c0dec120        0     1                 $d.12
c0dec12c c0dec12c       2c     2         obj/usbd_impl.o:(.text.USBD_WEBUSB_Init)
c0dec12c c0dec12c        0     1                 $t.13
c0dec12d c0dec12d       2c     1                 USBD_WEBUSB_Init
c0dec158 c0dec158        4     2         obj/usbd_impl.o:(.text.USBD_WEBUSB_DeInit)
c0dec158 c0dec158        0     1                 $t.14
c0dec159 c0dec159        4     1                 USBD_WEBUSB_DeInit
c0dec15c c0dec15c        4     2         obj/usbd_impl.o:(.text.USBD_WEBUSB_Setup)
c0dec15c c0dec15c        0     1                 $t.15
c0dec15d c0dec15d        4     1                 USBD_WEBUSB_Setup
c0dec160 c0dec160       18     4         obj/usbd_impl.o:(.text.USBD_WEBUSB_DataIn)
c0dec160 c0dec160        0     1                 $t.16
c0dec161 c0dec161       18     1                 USBD_WEBUSB_DataIn
c0dec174 c0dec174        0     1                 $d.17
c0dec178 c0dec178       54     4         obj/usbd_impl.o:(.text.USBD_WEBUSB_DataOut)
c0dec178 c0dec178        0     1                 $t.18
c0dec179 c0dec179       54     1                 USBD_WEBUSB_DataOut
c0dec1c0 c0dec1c0        0     1                 $d.19
c0dec1cc c0dec1cc       10     4         obj/usbd_impl.o:(.text.USBD_DeviceDescriptor)
c0dec1cc c0dec1cc        0     1                 $t.20
c0dec1cd c0dec1cd       10     1                 USBD_DeviceDescriptor
c0dec1d8 c0dec1d8        0     1                 $d.21
c0dec1dc c0dec1dc       10     4         obj/usbd_impl.o:(.text.USBD_LangIDStrDescriptor)
c0dec1dc c0dec1dc        0     1                 $t.22
c0dec1dd c0dec1dd       10     1                 USBD_LangIDStrDescriptor
c0dec1e8 c0dec1e8        0     1                 $d.23
c0dec1ec c0dec1ec       10     4         obj/usbd_impl.o:(.text.USBD_ManufacturerStrDescriptor)
c0dec1ec c0dec1ec        0     1                 $t.24
c0dec1ed c0dec1ed       10     1                 USBD_ManufacturerStrDescriptor
c0dec1f8 c0dec1f8        0     1                 $d.25
c0dec1fc c0dec1fc       10     4         obj/usbd_impl.o:(.text.USBD_ProductStrDescriptor)
c0dec1fc c0dec1fc        0     1                 $t.26
c0dec1fd c0dec1fd       10     1                 USBD_ProductStrDescriptor
c0dec208 c0dec208        0     1                 $d.27
c0dec20c c0dec20c       10     4         obj/usbd_impl.o:(.text.USBD_SerialStrDescriptor)
c0dec20c c0dec20c        0     1                 $t.28
c0dec20d c0dec20d       10     1                 USBD_SerialStrDescriptor
c0dec218 c0dec218        0     1                 $d.29
c0dec21c c0dec21c       10     4         obj/usbd_impl.o:(.text.USBD_ConfigStrDescriptor)
c0dec21c c0dec21c        0     1                 $t.30
c0dec21d c0dec21d       10     1                 USBD_ConfigStrDescriptor
c0dec228 c0dec228        0     1                 $d.31
c0dec22c c0dec22c       10     4         obj/usbd_impl.o:(.text.USBD_InterfaceStrDescriptor)
c0dec22c c0dec22c        0     1                 $t.32
c0dec22d c0dec22d       10     1                 USBD_InterfaceStrDescriptor
c0dec238 c0dec238        0     1                 $d.33
c0dec23c c0dec23c       10     4         obj/usbd_impl.o:(.text.USBD_BOSDescriptor)
c0dec23c c0dec23c        0     1                 $t.34
c0dec23d c0dec23d       10     1                 USBD_BOSDescriptor
c0dec248 c0dec248        0     1                 $d.35
c0dec24c c0dec24c       84     4         obj/usbd_impl.o:(.text.USBD_CtlError)
c0dec24c c0dec24c        0     1                 $t.36
c0dec24d c0dec24d       84     1                 USBD_CtlError
c0dec2bc c0dec2bc        0     1                 $d.37
c0dec2d0 c0dec2d0       a4     4         obj/usbd_impl.o:(.text.USB_power)
c0dec2d0 c0dec2d0        0     1                 $t.38
c0dec2d1 c0dec2d1       a4     1                 USB_power
c0dec350 c0dec350        0     1                 $d.39
c0dec374 c0dec374       10     4         obj/usbd_impl.o:(.text.USBD_GetCfgDesc_impl)
c0dec374 c0dec374        0     1                 $t.40
c0dec375 c0dec375       10     1                 USBD_GetCfgDesc_impl
c0dec380 c0dec380        0     1                 $d.41
c0dec384 c0dec384       10     4         obj/usbd_impl.o:(.text.USBD_GetDeviceQualifierDesc_impl)
c0dec384 c0dec384        0     1                 $t.42
c0dec385 c0dec385       10     1                 USBD_GetDeviceQualifierDesc_impl
c0dec390 c0dec390        0     1                 $d.43
c0dec394 c0dec394       2c     2         obj/usbd_ioreq.o:(.text.USBD_CtlSendData)
c0dec394 c0dec394        0     1                 $t.0
c0dec395 c0dec395       2c     1                 USBD_CtlSendData
c0dec3c0 c0dec3c0       1c     2         obj/usbd_ioreq.o:(.text.USBD_CtlContinueSendData)
c0dec3c0 c0dec3c0        0     1                 $t.1
c0dec3c1 c0dec3c1       1c     1                 USBD_CtlContinueSendData
c0dec3dc c0dec3dc        e     2         obj/usbd_ioreq.o:(.text.USBD_CtlContinueRx)
c0dec3dc c0dec3dc        0     1                 $t.3
c0dec3dd c0dec3dd        e     1                 USBD_CtlContinueRx
c0dec3ea c0dec3ea       18     2         obj/usbd_ioreq.o:(.text.USBD_CtlSendStatus)
c0dec3ea c0dec3ea        0     1                 $t.4
c0dec3eb c0dec3eb       18     1                 USBD_CtlSendStatus
c0dec402 c0dec402       16     2         obj/usbd_ioreq.o:(.text.USBD_CtlReceiveStatus)
c0dec402 c0dec402        0     1                 $t.5
c0dec403 c0dec403       16     1                 USBD_CtlReceiveStatus
c0dec418 c0dec418       30     4         obj/utils.o:(.text.array_hexstr)
c0dec418 c0dec418        0     1                 $t.0
c0dec419 c0dec419       30     1                 array_hexstr
c0dec444 c0dec444        0     1                 $d.1
c0dec448 c0dec448       2c     2         obj/utils.o:(.text.convertUint256BE)
c0dec448 c0dec448        0     1                 $t.2
c0dec449 c0dec449       2c     1                 convertUint256BE
c0dec474 c0dec474       28     2         obj/utils.o:(.text.u64_from_BE)
c0dec474 c0dec474        0     1                 $t.4
c0dec475 c0dec475       28     1                 u64_from_BE
c0dec49c c0dec49c       c0     4         obj/utils.o:(.text.uint256_to_decimal)
c0dec49c c0dec49c        0     1                 $t.5
c0dec49d c0dec49d       c0     1                 uint256_to_decimal
c0dec558 c0dec558        0     1                 $d.6
c0dec55c c0dec55c       16     2         obj/utils.o:(.text.allzeroes)
c0dec55c c0dec55c        0     1                 $t.7
c0dec55d c0dec55d       16     1                 allzeroes
c0dec572 c0dec572       7c     2         obj/utils.o:(.text.amountToString)
c0dec572 c0dec572        0     1                 $t.8
c0dec573 c0dec573       7c     1                 amountToString
c0dec5ee c0dec5ee       40     2         obj/utils.o:(.text.parse_swap_config)
c0dec5ee c0dec5ee        0     1                 $t.9
c0dec5ef c0dec5ef       40     1                 parse_swap_config
c0dec630 c0dec630       58     4         obj/ux_flow_engine.o:(.text.ux_flow_is_first)
c0dec630 c0dec630        0     1                 $t.0
c0dec631 c0dec631       58     1                 ux_flow_is_first
c0dec684 c0dec684        0     1                 $d.1
c0dec688 c0dec688       24     4         obj/ux_flow_engine.o:(.text.ux_flow_check_valid)
c0dec688 c0dec688        0     1                 $t.2
c0dec689 c0dec689       24     1                 ux_flow_check_valid
c0dec6a8 c0dec6a8        0     1                 $d.3
c0dec6ac c0dec6ac       58     4         obj/ux_flow_engine.o:(.text.ux_flow_is_last)
c0dec6ac c0dec6ac        0     1                 $t.4
c0dec6ad c0dec6ad       58     1                 ux_flow_is_last
c0dec700 c0dec700        0     1                 $d.5
c0dec704 c0dec704       34     4         obj/ux_flow_engine.o:(.text.ux_flow_direction)
c0dec704 c0dec704        0     1                 $t.6
c0dec705 c0dec705       34     1                 ux_flow_direction
c0dec734 c0dec734        0     1                 $d.7
c0dec738 c0dec738       80     4         obj/ux_flow_engine.o:(.text.ux_flow_next_internal)
c0dec738 c0dec738        0     1                 $t.11
c0dec739 c0dec739       80     1                 ux_flow_next_internal
c0dec7b4 c0dec7b4        0     1                 $d.12
c0dec7b8 c0dec7b8        a     2         obj/ux_flow_engine.o:(.text.ux_flow_next)
c0dec7b8 c0dec7b8        0     1                 $t.13
c0dec7b9 c0dec7b9        a     1                 ux_flow_next
c0dec7c4 c0dec7c4       7c     4         obj/ux_flow_engine.o:(.text.ux_flow_prev)
c0dec7c4 c0dec7c4        0     1                 $t.14
c0dec7c5 c0dec7c5       7c     1                 ux_flow_prev
c0dec83c c0dec83c        0     1                 $d.15
c0dec840 c0dec840       78     4         obj/ux_flow_engine.o:(.text.ux_flow_engine_init_step)
c0dec840 c0dec840        0     1                 $t.16
c0dec841 c0dec841       78     1                 ux_flow_engine_init_step
c0dec8b0 c0dec8b0        0     1                 $d.17
c0dec8b8 c0dec8b8       cc     4         obj/ux_flow_engine.o:(.text.ux_flow_validate)
c0dec8b8 c0dec8b8        0     1                 $t.18
c0dec8b9 c0dec8b9       cc     1                 ux_flow_validate
c0dec980 c0dec980        0     1                 $d.19
c0dec984 c0dec984       84     4         obj/ux_flow_engine.o:(.text.ux_flow_init)
c0dec984 c0dec984        0     1                 $t.20
c0dec985 c0dec985       84     1                 ux_flow_init
c0deca04 c0deca04        0     1                 $d.21
c0deca08 c0deca08       34     4         obj/ux_flow_engine.o:(.text.ux_flow_button_callback)
c0deca08 c0deca08        0     1                 $t.26
c0deca09 c0deca09       34     1                 ux_flow_button_callback
c0deca30 c0deca30        0     1                 $d.27
c0deca3c c0deca3c       3c     4         obj/ux_flow_engine.o:(.text.ux_stack_get_step_params)
c0deca3c c0deca3c        0     1                 $t.28
c0deca3d c0deca3d       3c     1                 ux_stack_get_step_params
c0deca70 c0deca70        0     1                 $d.29
c0deca78 c0deca78       14     4         obj/ux_flow_engine.o:(.text.ux_stack_get_current_step_params)
c0deca78 c0deca78        0     1                 $t.30
c0deca79 c0deca79       14     1                 ux_stack_get_current_step_params
c0deca88 c0deca88        0     1                 $d.31
c0deca8c c0deca8c       40     4         obj/ux_layout_bb.o:(.text.ux_layout_bb_init_common)
c0deca8c c0deca8c        0     1                 $t.0
c0deca8d c0deca8d       40     1                 ux_layout_bb_init_common
c0decac0 c0decac0        0     1                 $d.1
c0decacc c0decacc       2c     4         obj/ux_layout_bn.o:(.text.ux_layout_bn_prepro)
c0decacc c0decacc        0     1                 $t.0
c0decacd c0decacd       2c     1                 ux_layout_bn_prepro
c0decaf0 c0decaf0        0     1                 $d.1
c0decaf8 c0decaf8       2c     4         obj/ux_layout_bn.o:(.text.ux_layout_bn_init)
c0decaf8 c0decaf8        0     1                 $t.2
c0decaf9 c0decaf9       2c     1                 ux_layout_bn_init
c0decb1c c0decb1c        0     1                 $d.3
c0decb24 c0decb24       50     4         obj/ux_layout_bnnn.o:(.text.ux_layout_bnnn_init)
c0decb24 c0decb24        0     1                 $t.0
c0decb25 c0decb25       50     1                 ux_layout_bnnn_init
c0decb64 c0decb64        0     1                 $d.1
c0decb74 c0decb74       2c     4         obj/ux_layout_nn.o:(.text.ux_layout_nn_prepro)
c0decb74 c0decb74        0     1                 $t.0
c0decb75 c0decb75       2c     1                 ux_layout_nn_prepro
c0decb98 c0decb98        0     1                 $d.1
c0decba0 c0decba0       2c     4         obj/ux_layout_nn.o:(.text.ux_layout_nn_init)
c0decba0 c0decba0        0     1                 $t.2
c0decba1 c0decba1       2c     1                 ux_layout_nn_init
c0decbc4 c0decbc4        0     1                 $d.3
c0decbcc c0decbcc       50     4         obj/ux_layout_paging.o:(.text.ux_layout_paging_redisplay_common)
c0decbcc c0decbcc        0     1                 $t.0
c0decbcd c0decbcd       50     1                 ux_layout_paging_redisplay_common
c0decc14 c0decc14        0     1                 $d.1
c0decc1c c0decc1c       24     4         obj/ux_layout_paging.o:(.text.ux_layout_paging_redisplay_by_addr)
c0decc1c c0decc1c        0     1                 $t.2
c0decc1d c0decc1d       24     1                 ux_layout_paging_redisplay_by_addr
c0decc38 c0decc38        0     1                 $d.3
c0decc40 c0decc40       14     4         obj/ux_layout_paging.o:(.text.ux_layout_paging_button_callback_by_addr)
c0decc40 c0decc40        0     1                 $t.4
c0decc41 c0decc41       14     1                 ux_layout_paging_button_callback_by_addr
c0decc50 c0decc50        0     1                 $d.5
c0decc54 c0decc54       12     2         obj/ux_layout_paging.o:(.text.ux_layout_paging_prepro_by_addr)
c0decc54 c0decc54        0     1                 $t.6
c0decc55 c0decc55       12     1                 ux_layout_paging_prepro_by_addr
c0decc68 c0decc68       a4     4         obj/ux_layout_paging.o:(.text.ux_layout_paging_init_common)
c0decc68 c0decc68        0     1                 $t.12
c0decc69 c0decc69       a4     1                 ux_layout_paging_init_common
c0decd04 c0decd04        0     1                 $d.13
c0decd0c c0decd0c       1c     4         obj/ux_layout_paging.o:(.text.ux_layout_paging_init)
c0decd0c c0decd0c        0     1                 $t.16
c0decd0d c0decd0d       1c     1                 ux_layout_paging_init
c0decd24 c0decd24        0     1                 $d.17
c0decd28 c0decd28      150     4         obj/ux_layout_paging.o:(.text.ux_layout_paging_prepro_common)
c0decd28 c0decd28        0     1                 $t.30
c0decd29 c0decd29      150     1                 ux_layout_paging_prepro_common
c0dece60 c0dece60        0     1                 $d.31
c0dece78 c0dece78       84     4         obj/ux_layout_paging.o:(.text.ux_layout_paging_button_callback_common)
c0dece78 c0dece78        0     1                 $t.32
c0dece79 c0dece79       84     1                 ux_layout_paging_button_callback_common
c0deceec c0deceec        0     1                 $d.33
c0decefc c0decefc      144     4         obj/ux_layout_paging_compute.o:(.text.ux_layout_paging_compute)
c0decefc c0decefc        0     1                 $t.0
c0decefd c0decefd      144     1                 ux_layout_paging_compute
c0ded03c c0ded03c        0     1                 $d.1
c0ded040 c0ded040       1e     2         obj/ux_layout_paging_compute.o:(.text.is_word_delim)
c0ded040 c0ded040        0     1                 $t.2
c0ded041 c0ded041       1e     1                 is_word_delim
c0ded060 c0ded060       60     4         obj/ux_layout_pb.o:(.text.ux_layout_pb_prepro)
c0ded060 c0ded060        0     1                 $t.0
c0ded061 c0ded061       60     1                 ux_layout_pb_prepro
c0ded0bc c0ded0bc        0     1                 $d.1
c0ded0c0 c0ded0c0       50     4         obj/ux_layout_pb.o:(.text.ux_layout_pb_init)
c0ded0c0 c0ded0c0        0     1                 $t.2
c0ded0c1 c0ded0c1       50     1                 ux_layout_pb_init
c0ded100 c0ded100        0     1                 $d.3
c0ded110 c0ded110       6c     4         obj/ux_layout_pbb.o:(.text.ux_layout_pbb_prepro)
c0ded110 c0ded110        0     1                 $t.0
c0ded111 c0ded111       6c     1                 ux_layout_pbb_prepro
c0ded178 c0ded178        0     1                 $d.1
c0ded17c c0ded17c       40     4         obj/ux_layout_pbb.o:(.text.ux_layout_pbb_init_common)
c0ded17c c0ded17c        0     1                 $t.2
c0ded17d c0ded17d       40     1                 ux_layout_pbb_init_common
c0ded1b0 c0ded1b0        0     1                 $d.3
c0ded1bc c0ded1bc       2c     4         obj/ux_layout_pbb.o:(.text.ux_layout_pbb_init)
c0ded1bc c0ded1bc        0     1                 $t.4
c0ded1bd c0ded1bd       2c     1                 ux_layout_pbb_init
c0ded1e0 c0ded1e0        0     1                 $d.5
c0ded1e8 c0ded1e8       2c     4         obj/ux_layout_pnn.o:(.text.ux_layout_pnn_prepro)
c0ded1e8 c0ded1e8        0     1                 $t.0
c0ded1e9 c0ded1e9       2c     1                 ux_layout_pnn_prepro
c0ded20c c0ded20c        0     1                 $d.1
c0ded214 c0ded214       2c     4         obj/ux_layout_pnn.o:(.text.ux_layout_pnn_init)
c0ded214 c0ded214        0     1                 $t.2
c0ded215 c0ded215       2c     1                 ux_layout_pnn_init
c0ded238 c0ded238        0     1                 $d.3
c0ded240 c0ded240       60     4         obj/ux_layout_utils.o:(.text.ux_layout_strings_prepro)
c0ded240 c0ded240        0     1                 $t.4
c0ded241 c0ded241       60     1                 ux_layout_strings_prepro
c0ded29c c0ded29c        0     1                 $d.5
c0ded2a0 c0ded2a0       30     4         obj/ux_stack.o:(.text.ux_stack_push)
c0ded2a0 c0ded2a0        0     1                 $t.2
c0ded2a1 c0ded2a1       30     1                 ux_stack_push
c0ded2cc c0ded2cc        0     1                 $d.3
c0ded2d0 c0ded2d0       5c     4         obj/ux_stack.o:(.text.ux_stack_display)
c0ded2d0 c0ded2d0        0     1                 $t.8
c0ded2d1 c0ded2d1       5c     1                 ux_stack_display
c0ded328 c0ded328        0     1                 $d.9
c0ded32c c0ded32c       24     4         obj/ux_stack.o:(.text.ux_stack_init)
c0ded32c c0ded32c        0     1                 $t.14
c0ded32d c0ded32d       24     1                 ux_stack_init
c0ded34c c0ded34c        0     1                 $d.15
c0ded350 c0ded350       3c     4         obj/ux_stack.o:(.text.ux_stack_display_element_callback)
c0ded350 c0ded350        0     1                 $t.16
c0ded351 c0ded351       3c     1                 ux_stack_display_element_callback
c0ded388 c0ded388        0     1                 $d.17
c0ded38c c0ded38c       b4     4         obj/ux_stack.o:(.text.ux_stack_display_elements)
c0ded38c c0ded38c        0     1                 $t.18
c0ded38d c0ded38d       b4     1                 ux_stack_display_elements
c0ded43c c0ded43c        0     1                 $d.19
c0ded440 c0ded440      114     4         /opt/nanox-secure-sdk/lib/libgcc.a(_udivsi3.o):(.text)
c0ded440 c0ded440        0     1                 $t
c0ded440 c0ded440        0     1                 .udivsi3_skip_div0_test
c0ded441 c0ded441      10a     1                 __udivsi3
c0ded441 c0ded441        0     1                 __aeabi_uidiv
c0ded54d c0ded54d        8     1                 __aeabi_uidivmod
c0ded554 c0ded554        4     4         /opt/nanox-secure-sdk/lib/libgcc.a(_dvmd_tls.o):(.text)
c0ded554 c0ded554        0     1                 $t
c0ded555 c0ded555        2     1                 __aeabi_idiv0
c0ded555 c0ded555        2     1                 __aeabi_ldiv0
c0ded558 c0ded558       18     4         /opt/nanox-secure-sdk/lib/libgcc.a(_lshrdi3.o):(.text)
c0ded558 c0ded558        0     1                 $t
c0ded559 c0ded559       18     1                 __lshrdi3
c0ded559 c0ded559       18     1                 __aeabi_llsr
c0ded570 c0ded570       18     4         /opt/nanox-secure-sdk/lib/libgcc.a(_ashldi3.o):(.text)
c0ded570 c0ded570        0     1                 $t
c0ded571 c0ded571       18     1                 __ashldi3
c0ded571 c0ded571       18     1                 __aeabi_llsl
c0ded588 c0ded588       40     4         /opt/nanox-secure-sdk/lib/libgcc.a(_aeabi_uldivmod.o):(.text)
c0ded588 c0ded588        0     1                 $t
c0ded589 c0ded589       3e     1                 __aeabi_uldivmod
c0ded5ac c0ded5ac        0     1                 $d
c0ded5b0 c0ded5b0        0     1                 $t
c0ded5c8 c0ded5c8       54     4         /opt/nanox-secure-sdk/lib/libgcc.a(_muldi3.o):(.text)
c0ded5c8 c0ded5c8        0     1                 $t
c0ded5c9 c0ded5c9       54     1                 __muldi3
c0ded5c9 c0ded5c9       54     1                 __aeabi_lmul
c0ded61c c0ded61c      1a4     4         /opt/nanox-secure-sdk/lib/libgcc.a(_udivmoddi4.o):(.text)
c0ded61c c0ded61c        0     1                 $t
c0ded61d c0ded61d      1a2     1                 __udivmoddi4
c0ded7c0 c0ded7c0       18     4         /opt/nanox-secure-sdk/lib/libgcc.a(_clzdi2.o):(.text)
c0ded7c0 c0ded7c0        0     1                 $t
c0ded7c1 c0ded7c1       16     1                 __clzdi2
c0ded7d8 c0ded7d8       3c     4         /opt/nanox-secure-sdk/lib/libgcc.a(_clzsi2.o):(.text)
c0ded7d8 c0ded7d8        0     1                 $t
c0ded7d9 c0ded7d9       3c     1                 __clzsi2
c0ded804 c0ded804        0     1                 $d
c0ded814 c0ded814        c     4         /opt/nanox-secure-sdk/lib/libc.a(lib_a-aeabi_memclr.o):(.text.__aeabi_memclr)
c0ded814 c0ded814        0     1                 $t
c0ded815 c0ded815        a     1                 __aeabi_memclr
c0ded815 c0ded815        a     1                 __aeabi_memclr8
c0ded815 c0ded815        a     1                 __aeabi_memclr4
c0ded820 c0ded820        8     4         /opt/nanox-secure-sdk/lib/libc.a(lib_a-aeabi_memcpy.o):(.text.__aeabi_memcpy)
c0ded820 c0ded820        0     1                 $t
c0ded821 c0ded821        8     1                 __aeabi_memcpy
c0ded821 c0ded821        8     1                 __aeabi_memcpy8
c0ded821 c0ded821        8     1                 __aeabi_memcpy4
c0ded828 c0ded828        8     4         /opt/nanox-secure-sdk/lib/libc.a(lib_a-aeabi_memmove.o):(.text.__aeabi_memmove)
c0ded828 c0ded828        0     1                 $t
c0ded829 c0ded829        8     1                 __aeabi_memmove
c0ded829 c0ded829        8     1                 __aeabi_memmove8
c0ded829 c0ded829        8     1                 __aeabi_memmove4
c0ded830 c0ded830       10     4         /opt/nanox-secure-sdk/lib/libc.a(lib_a-aeabi_memset.o):(.text.__aeabi_memset)
c0ded830 c0ded830        0     1                 $t
c0ded831 c0ded831        e     1                 __aeabi_memset
c0ded831 c0ded831        e     1                 __aeabi_memset8
c0ded831 c0ded831        e     1                 __aeabi_memset4
c0ded840 c0ded840        8     4         /opt/nanox-secure-sdk/lib/libc.a(lib_a-explicit_bzero.o):(.text.explicit_bzero)
c0ded840 c0ded840        0     1                 $t
c0ded841 c0ded841        8     1                 explicit_bzero
c0ded848 c0ded848        c     4         /opt/nanox-secure-sdk/lib/libc.a(lib_a-bzero.o):(.text.bzero)
c0ded848 c0ded848        0     1                 $t
c0ded849 c0ded849        c     1                 bzero
c0ded854 c0ded854       50     4         /opt/nanox-secure-sdk/lib/libc.a(lib_a-memcmp.o):(.text.memcmp)
c0ded854 c0ded854        0     1                 $t
c0ded855 c0ded855       50     1                 memcmp
c0ded8a4 c0ded8a4       a8     4         /opt/nanox-secure-sdk/lib/libc.a(lib_a-memcpy-stub.o):(.text.memcpy)
c0ded8a4 c0ded8a4        0     1                 $t
c0ded8a5 c0ded8a5       a6     1                 memcpy
c0ded94c c0ded94c       bc     4         /opt/nanox-secure-sdk/lib/libc.a(lib_a-memmove.o):(.text.memmove)
c0ded94c c0ded94c        0     1                 $t
c0ded94d c0ded94d       ba     1                 memmove
c0deda08 c0deda08       a8     4         /opt/nanox-secure-sdk/lib/libc.a(lib_a-memset.o):(.text.memset)
c0deda08 c0deda08        0     1                 $t
c0deda09 c0deda09       a8     1                 memset
c0dedab0 c0dedab0       34     2         /opt/nanox-secure-sdk/lib/libc.a(lib_a-setjmp.o):(.text)
c0dedab0 c0dedab0        0     1                 $t
c0dedab1 c0dedab1        0     1                 setjmp
c0dedac9 c0dedac9        0     1                 longjmp
c0dedae4 c0dedae4       88     4         /opt/nanox-secure-sdk/lib/libc.a(lib_a-strcmp.o):(.text)
c0dedae4 c0dedae4        0     1                 $t
c0dedae5 c0dedae5       84     1                 strcmp
c0dedb68 c0dedb68        0     1                 $d
c0dedb6c c0dedb6c       68     4         /opt/nanox-secure-sdk/lib/libc.a(lib_a-strlcat.o):(.text.strlcat)
c0dedb6c c0dedb6c        0     1                 $t
c0dedb6d c0dedb6d       66     1                 strlcat
c0dedbd4 c0dedbd4       4c     4         /opt/nanox-secure-sdk/lib/libc.a(lib_a-strlcpy.o):(.text.strlcpy)
c0dedbd4 c0dedbd4        0     1                 $t
c0dedbd5 c0dedbd5       4c     1                 strlcpy
c0dedc20 c0dedc20       68     4         /opt/nanox-secure-sdk/lib/libc.a(lib_a-strlen-stub.o):(.text.strlen)
c0dedc20 c0dedc20        0     1                 $t
c0dedc21 c0dedc21       68     1                 strlen
c0dedc80 c0dedc80        0     1                 $d
c0dedc88 c0dedc88       94     4         /opt/nanox-secure-sdk/lib/libc.a(lib_a-strncmp.o):(.text.strncmp)
c0dedc88 c0dedc88        0     1                 $t
c0dedc89 c0dedc89       94     1                 strncmp
c0dedd14 c0dedd14        0     1                 $d
c0dedd1c c0dedd1c       2c     4         /opt/nanox-secure-sdk/lib/libc.a(lib_a-strnlen.o):(.text.strnlen)
c0dedd1c c0dedd1c        0     1                 $t
c0dedd1d c0dedd1d       2a     1                 strnlen
c0dedd48 c0dedd48      5a5     1         <internal>:(.text)
c0dee2ed c0dee2ed      3bd     1         obj/bagl_fonts.o:(.rodata.bitmapOPEN_SANS_EXTRABOLD_11PX)
c0dee2ed c0dee2ed      3bd     1                 bitmapOPEN_SANS_EXTRABOLD_11PX
c0dee6aa c0dee6aa      180     2         obj/bagl_fonts.o:(.rodata.charactersOPEN_SANS_EXTRABOLD_11PX)
c0dee6aa c0dee6aa      180     1                 charactersOPEN_SANS_EXTRABOLD_11PX
c0dee82c c0dee82c       14     4         obj/bagl_fonts.o:(.rodata.fontOPEN_SANS_EXTRABOLD_11PX)
c0dee82c c0dee82c       14     1                 fontOPEN_SANS_EXTRABOLD_11PX
c0dee840 c0dee840      727     1         obj/bagl_fonts.o:(.rodata.bitmapOPEN_SANS_LIGHT_16PX)
c0dee840 c0dee840      727     1                 bitmapOPEN_SANS_LIGHT_16PX
c0deef68 c0deef68      180     2         obj/bagl_fonts.o:(.rodata.charactersOPEN_SANS_LIGHT_16PX)
c0deef68 c0deef68      180     1                 charactersOPEN_SANS_LIGHT_16PX
c0def0e8 c0def0e8       14     4         obj/bagl_fonts.o:(.rodata.fontOPEN_SANS_LIGHT_16PX)
c0def0e8 c0def0e8       14     1                 fontOPEN_SANS_LIGHT_16PX
c0def0fc c0def0fc      369     1         obj/bagl_fonts.o:(.rodata.bitmapOPEN_SANS_REGULAR_11PX)
c0def0fc c0def0fc      369     1                 bitmapOPEN_SANS_REGULAR_11PX
c0def466 c0def466      180     2         obj/bagl_fonts.o:(.rodata.charactersOPEN_SANS_REGULAR_11PX)
c0def466 c0def466      180     1                 charactersOPEN_SANS_REGULAR_11PX
c0def5e8 c0def5e8       14     4         obj/bagl_fonts.o:(.rodata.fontOPEN_SANS_REGULAR_11PX)
c0def5e8 c0def5e8       14     1                 fontOPEN_SANS_REGULAR_11PX
c0def5fc c0def5fc        c     4         obj/bagl_fonts.o:(.rodata.C_bagl_fonts)
c0def5fc c0def5fc        c     1                 C_bagl_fonts
c0def608 c0def608        4     4         obj/bagl_fonts.o:(.rodata.C_bagl_fonts_count)
c0def608 c0def608        4     1                 C_bagl_fonts_count
c0def60c c0def60c       30     1         obj/cmd_getEth2PublicKey.o:(.rodata.BLS12_381_FIELD_MODULUS)
c0def60c c0def60c       30     1                 BLS12_381_FIELD_MODULUS
c0def63c c0def63c       41     1         obj/cmd_provideNFTInfo.o:(.rodata.LEDGER_NFT_METADATA_PUBLIC_KEY)
c0def63c c0def63c       41     1                 LEDGER_NFT_METADATA_PUBLIC_KEY
c0def67d c0def67d       41     1         obj/cmd_provideTokenInfo.o:(.rodata.LEDGER_SIGNATURE_PUBLIC_KEY)
c0def67d c0def67d       41     1                 LEDGER_SIGNATURE_PUBLIC_KEY
c0def6be c0def6be       41     1         obj/cmd_setExternalPlugin.o:(.rodata.LEDGER_SIGNATURE_PUBLIC_KEY)
c0def6be c0def6be       41     1                 LEDGER_SIGNATURE_PUBLIC_KEY
c0def6ff c0def6ff       41     1         obj/cmd_setPlugin.o:(.rodata.LEDGER_NFT_SELECTOR_PUBLIC_KEY)
c0def6ff c0def6ff       41     1                 LEDGER_NFT_SELECTOR_PUBLIC_KEY
c0def740 c0def740       1b     1         obj/cmd_signMessage.o:(.rodata.SIGN_MAGIC)
c0def740 c0def740       1b     1                 SIGN_MAGIC
c0def75b c0def75b       75     1         obj/compound_plugin.o:(.rodata.UNDERLYING_ASSET_DECIMALS)
c0def75b c0def75b       75     1                 UNDERLYING_ASSET_DECIMALS
c0def7d0 c0def7d0       14     1         <internal>:(.text)
c0def7e4 c0def7e4        4     1         obj/erc1155_plugin.o:(.rodata.ERC1155_APPROVE_FOR_ALL_SELECTOR)
c0def7e4 c0def7e4        4     1                 ERC1155_APPROVE_FOR_ALL_SELECTOR
c0def7e8 c0def7e8        4     1         obj/erc1155_plugin.o:(.rodata.ERC1155_SAFE_TRANSFER_SELECTOR)
c0def7e8 c0def7e8        4     1                 ERC1155_SAFE_TRANSFER_SELECTOR
c0def7ec c0def7ec        4     1         obj/erc1155_plugin.o:(.rodata.ERC1155_SAFE_BATCH_TRANSFER)
c0def7ec c0def7ec        4     1                 ERC1155_SAFE_BATCH_TRANSFER
c0def7f0 c0def7f0        c     4         obj/erc1155_plugin.o:(.rodata.ERC1155_SELECTORS)
c0def7f0 c0def7f0        c     1                 ERC1155_SELECTORS
c0def7fc c0def7fc      1c7     1         obj/erc20_plugin.o:(.rodata.CONTRACTS)
c0def7fc c0def7fc      1c7     1                 CONTRACTS
c0def9c3 c0def9c3        4     1         obj/erc721_plugin.o:(.rodata.ERC721_APPROVE_SELECTOR)
c0def9c3 c0def9c3        4     1                 ERC721_APPROVE_SELECTOR
c0def9c7 c0def9c7        4     1         obj/erc721_plugin.o:(.rodata.ERC721_APPROVE_FOR_ALL_SELECTOR)
c0def9c7 c0def9c7        4     1                 ERC721_APPROVE_FOR_ALL_SELECTOR
c0def9cb c0def9cb        4     1         obj/erc721_plugin.o:(.rodata.ERC721_TRANSFER_SELECTOR)
c0def9cb c0def9cb        4     1                 ERC721_TRANSFER_SELECTOR
c0def9cf c0def9cf        4     1         obj/erc721_plugin.o:(.rodata.ERC721_SAFE_TRANSFER_SELECTOR)
c0def9cf c0def9cf        4     1                 ERC721_SAFE_TRANSFER_SELECTOR
c0def9d3 c0def9d3        4     1         obj/erc721_plugin.o:(.rodata.ERC721_SAFE_TRANSFER_DATA_SELECTOR)
c0def9d3 c0def9d3        4     1                 ERC721_SAFE_TRANSFER_DATA_SELECTOR
c0def9d8 c0def9d8       14     4         obj/erc721_plugin.o:(.rodata.ERC721_SELECTORS)
c0def9d8 c0def9d8       14     1                 ERC721_SELECTORS
c0def9ec c0def9ec       14     1         obj/eth2_plugin.o:(.rodata.deposit_contract_address)
c0def9ec c0def9ec       14     1                 deposit_contract_address
c0defa00 c0defa00        4     1         obj/eth_plugin_internal.o:(.rodata.ERC20_TRANSFER_SELECTOR)
c0defa00 c0defa00        4     1                 ERC20_TRANSFER_SELECTOR
c0defa04 c0defa04        4     1         obj/eth_plugin_internal.o:(.rodata.ERC20_APPROVE_SELECTOR)
c0defa04 c0defa04        4     1                 ERC20_APPROVE_SELECTOR
c0defa08 c0defa08        8     4         obj/eth_plugin_internal.o:(.rodata.ERC20_SELECTORS)
c0defa08 c0defa08        8     1                 ERC20_SELECTORS
c0defa10 c0defa10        4     1         obj/eth_plugin_internal.o:(.rodata.COMPOUND_REDEEM_UNDERLYING_SELECTOR)
c0defa10 c0defa10        4     1                 COMPOUND_REDEEM_UNDERLYING_SELECTOR
c0defa14 c0defa14        4     1         obj/eth_plugin_internal.o:(.rodata.COMPOUND_REDEEM_SELECTOR)
c0defa14 c0defa14        4     1                 COMPOUND_REDEEM_SELECTOR
c0defa18 c0defa18        4     1         obj/eth_plugin_internal.o:(.rodata.COMPOUND_MINT_SELECTOR)
c0defa18 c0defa18        4     1                 COMPOUND_MINT_SELECTOR
c0defa1c c0defa1c        4     1         obj/eth_plugin_internal.o:(.rodata.CETH_MINT_SELECTOR)
c0defa1c c0defa1c        4     1                 CETH_MINT_SELECTOR
c0defa20 c0defa20       10     4         obj/eth_plugin_internal.o:(.rodata.COMPOUND_SELECTORS)
c0defa20 c0defa20       10     1                 COMPOUND_SELECTORS
c0defa30 c0defa30        4     1         obj/eth_plugin_internal.o:(.rodata.ETH2_DEPOSIT_SELECTOR)
c0defa30 c0defa30        4     1                 ETH2_DEPOSIT_SELECTOR
c0defa34 c0defa34        4     4         obj/eth_plugin_internal.o:(.rodata.ETH2_SELECTORS)
c0defa34 c0defa34        4     1                 ETH2_SELECTORS
c0defa38 c0defa38        4     1         obj/eth_plugin_internal.o:(.rodata.STARKWARE_REGISTER_ID)
c0defa38 c0defa38        4     1                 STARKWARE_REGISTER_ID
c0defa3c c0defa3c        4     1         obj/eth_plugin_internal.o:(.rodata.STARKWARE_DEPOSIT_TOKEN_ID)
c0defa3c c0defa3c        4     1                 STARKWARE_DEPOSIT_TOKEN_ID
c0defa40 c0defa40        4     1         obj/eth_plugin_internal.o:(.rodata.STARKWARE_DEPOSIT_ETH_ID)
c0defa40 c0defa40        4     1                 STARKWARE_DEPOSIT_ETH_ID
c0defa44 c0defa44        4     1         obj/eth_plugin_internal.o:(.rodata.STARKWARE_DEPOSIT_CANCEL_ID)
c0defa44 c0defa44        4     1                 STARKWARE_DEPOSIT_CANCEL_ID
c0defa48 c0defa48        4     1         obj/eth_plugin_internal.o:(.rodata.STARKWARE_DEPOSIT_RECLAIM_ID)
c0defa48 c0defa48        4     1                 STARKWARE_DEPOSIT_RECLAIM_ID
c0defa4c c0defa4c        4     1         obj/eth_plugin_internal.o:(.rodata.STARKWARE_WITHDRAW_ID)
c0defa4c c0defa4c        4     1                 STARKWARE_WITHDRAW_ID
c0defa50 c0defa50        4     1         obj/eth_plugin_internal.o:(.rodata.STARKWARE_FULL_WITHDRAWAL_ID)
c0defa50 c0defa50        4     1                 STARKWARE_FULL_WITHDRAWAL_ID
c0defa54 c0defa54        4     1         obj/eth_plugin_internal.o:(.rodata.STARKWARE_FREEZE_ID)
c0defa54 c0defa54        4     1                 STARKWARE_FREEZE_ID
c0defa58 c0defa58        4     1         obj/eth_plugin_internal.o:(.rodata.STARKWARE_ESCAPE_ID)
c0defa58 c0defa58        4     1                 STARKWARE_ESCAPE_ID
c0defa5c c0defa5c        4     1         obj/eth_plugin_internal.o:(.rodata.STARKWARE_VERIFY_ESCAPE_ID)
c0defa5c c0defa5c        4     1                 STARKWARE_VERIFY_ESCAPE_ID
c0defa60 c0defa60        4     1         obj/eth_plugin_internal.o:(.rodata.STARKWARE_WITHDRAW_TO_ID)
c0defa60 c0defa60        4     1                 STARKWARE_WITHDRAW_TO_ID
c0defa64 c0defa64        4     1         obj/eth_plugin_internal.o:(.rodata.STARKWARE_DEPOSIT_NFT_ID)
c0defa64 c0defa64        4     1                 STARKWARE_DEPOSIT_NFT_ID
c0defa68 c0defa68        4     1         obj/eth_plugin_internal.o:(.rodata.STARKWARE_DEPOSIT_NFT_RECLAIM_ID)
c0defa68 c0defa68        4     1                 STARKWARE_DEPOSIT_NFT_RECLAIM_ID
c0defa6c c0defa6c        4     1         obj/eth_plugin_internal.o:(.rodata.STARKWARE_WITHDRAW_AND_MINT_ID)
c0defa6c c0defa6c        4     1                 STARKWARE_WITHDRAW_AND_MINT_ID
c0defa70 c0defa70        4     1         obj/eth_plugin_internal.o:(.rodata.STARKWARE_WITHDRAW_NFT_ID)
c0defa70 c0defa70        4     1                 STARKWARE_WITHDRAW_NFT_ID
c0defa74 c0defa74        4     1         obj/eth_plugin_internal.o:(.rodata.STARKWARE_WITHDRAW_NFT_TO_ID)
c0defa74 c0defa74        4     1                 STARKWARE_WITHDRAW_NFT_TO_ID
c0defa78 c0defa78        4     1         obj/eth_plugin_internal.o:(.rodata.STARKWARE_REGISTER_AND_DEPOSIT_TOKEN_ID)
c0defa78 c0defa78        4     1                 STARKWARE_REGISTER_AND_DEPOSIT_TOKEN_ID
c0defa7c c0defa7c        4     1         obj/eth_plugin_internal.o:(.rodata.STARKWARE_REGISTER_AND_DEPOSIT_ETH_ID)
c0defa7c c0defa7c        4     1                 STARKWARE_REGISTER_AND_DEPOSIT_ETH_ID
c0defa80 c0defa80        4     1         obj/eth_plugin_internal.o:(.rodata.STARKWARE_PROXY_DEPOSIT_TOKEN_ID)
c0defa80 c0defa80        4     1                 STARKWARE_PROXY_DEPOSIT_TOKEN_ID
c0defa84 c0defa84        4     1         obj/eth_plugin_internal.o:(.rodata.STARKWARE_PROXY_DEPOSIT_ETH_ID)
c0defa84 c0defa84        4     1                 STARKWARE_PROXY_DEPOSIT_ETH_ID
c0defa88 c0defa88       50     4         obj/eth_plugin_internal.o:(.rodata.STARKWARE_SELECTORS)
c0defa88 c0defa88       50     1                 STARKWARE_SELECTORS
c0defad8 c0defad8       78     4         obj/eth_plugin_internal.o:(.rodata.INTERNAL_ETH_PLUGINS)
c0defad8 c0defad8       78     1                 INTERNAL_ETH_PLUGINS
c0defb50 c0defb50        8     4         obj/glyphs.o:(.rodata.C_icon_back_x_colors)
c0defb50 c0defb50        8     1                 C_icon_back_x_colors
c0defb58 c0defb58       19     1         obj/glyphs.o:(.rodata.C_icon_back_x_bitmap)
c0defb58 c0defb58       19     1                 C_icon_back_x_bitmap
c0defb74 c0defb74       14     4         obj/glyphs.o:(.rodata.C_icon_back_x)
c0defb74 c0defb74       14     1                 C_icon_back_x
c0defb88 c0defb88        8     4         obj/glyphs.o:(.rodata.C_icon_certificate_colors)
c0defb88 c0defb88        8     1                 C_icon_certificate_colors
c0defb90 c0defb90       19     1         obj/glyphs.o:(.rodata.C_icon_certificate_bitmap)
c0defb90 c0defb90       19     1                 C_icon_certificate_bitmap
c0defbac c0defbac       14     4         obj/glyphs.o:(.rodata.C_icon_certificate)
c0defbac c0defbac       14     1                 C_icon_certificate
c0defbc0 c0defbc0        8     4         obj/glyphs.o:(.rodata.C_icon_crossmark_colors)
c0defbc0 c0defbc0        8     1                 C_icon_crossmark_colors
c0defbc8 c0defbc8       19     1         obj/glyphs.o:(.rodata.C_icon_crossmark_bitmap)
c0defbc8 c0defbc8       19     1                 C_icon_crossmark_bitmap
c0defbe4 c0defbe4       14     4         obj/glyphs.o:(.rodata.C_icon_crossmark)
c0defbe4 c0defbe4       14     1                 C_icon_crossmark
c0defbf8 c0defbf8        8     4         obj/glyphs.o:(.rodata.C_icon_dashboard_x_colors)
c0defbf8 c0defbf8        8     1                 C_icon_dashboard_x_colors
c0defc00 c0defc00       19     1         obj/glyphs.o:(.rodata.C_icon_dashboard_x_bitmap)
c0defc00 c0defc00       19     1                 C_icon_dashboard_x_bitmap
c0defc1c c0defc1c       14     4         obj/glyphs.o:(.rodata.C_icon_dashboard_x)
c0defc1c c0defc1c       14     1                 C_icon_dashboard_x
c0defc30 c0defc30        8     4         obj/glyphs.o:(.rodata.C_icon_eye_colors)
c0defc30 c0defc30        8     1                 C_icon_eye_colors
c0defc38 c0defc38       19     1         obj/glyphs.o:(.rodata.C_icon_eye_bitmap)
c0defc38 c0defc38       19     1                 C_icon_eye_bitmap
c0defc54 c0defc54       14     4         obj/glyphs.o:(.rodata.C_icon_eye)
c0defc54 c0defc54       14     1                 C_icon_eye
c0defc68 c0defc68        8     4         obj/glyphs.o:(.rodata.C_icon_left_colors)
c0defc68 c0defc68        8     1                 C_icon_left_colors
c0defc70 c0defc70        4     1         obj/glyphs.o:(.rodata.C_icon_left_bitmap)
c0defc70 c0defc70        4     1                 C_icon_left_bitmap
c0defc74 c0defc74       14     4         obj/glyphs.o:(.rodata.C_icon_left)
c0defc74 c0defc74       14     1                 C_icon_left
c0defc88 c0defc88        8     4         obj/glyphs.o:(.rodata.C_icon_right_colors)
c0defc88 c0defc88        8     1                 C_icon_right_colors
c0defc90 c0defc90        4     1         obj/glyphs.o:(.rodata.C_icon_right_bitmap)
c0defc90 c0defc90        4     1                 C_icon_right_bitmap
c0defc94 c0defc94       14     4         obj/glyphs.o:(.rodata.C_icon_right)
c0defc94 c0defc94       14     1                 C_icon_right
c0defca8 c0defca8        8     4         obj/glyphs.o:(.rodata.C_icon_validate_14_colors)
c0defca8 c0defca8        8     1                 C_icon_validate_14_colors
c0defcb0 c0defcb0       19     1         obj/glyphs.o:(.rodata.C_icon_validate_14_bitmap)
c0defcb0 c0defcb0       19     1                 C_icon_validate_14_bitmap
c0defccc c0defccc       14     4         obj/glyphs.o:(.rodata.C_icon_validate_14)
c0defccc c0defccc       14     1                 C_icon_validate_14
c0defce0 c0defce0        8     4         obj/glyphs.o:(.rodata.C_icon_warning_colors)
c0defce0 c0defce0        8     1                 C_icon_warning_colors
c0defce8 c0defce8       19     1         obj/glyphs.o:(.rodata.C_icon_warning_bitmap)
c0defce8 c0defce8       19     1                 C_icon_warning_bitmap
c0defd04 c0defd04       14     4         obj/glyphs.o:(.rodata.C_icon_warning)
c0defd04 c0defd04       14     1                 C_icon_warning
c0defd18 c0defd18       10     1         obj/ledger_ble.o:(.rodata.service_uuid)
c0defd18 c0defd18       10     1                 service_uuid
c0defd28 c0defd28       10     1         obj/ledger_ble.o:(.rodata.charUuidTX)
c0defd28 c0defd28       10     1                 charUuidTX
c0defd38 c0defd38       10     1         obj/ledger_ble.o:(.rodata.charUuidRX)
c0defd38 c0defd38       10     1                 charUuidRX
c0defd48 c0defd48        9     4         <internal>:(.text)
c0defd54 c0defd54        8     4         obj/main.o:(.rodata.U_os_perso_seed_cookie)
c0defd54 c0defd54        8     1                 U_os_perso_seed_cookie
c0defd5c c0defd5c        5     1         obj/os_io_seproxyhal.o:(.rodata.seph_io_general_status)
c0defd5c c0defd5c        5     1                 seph_io_general_status
c0defd61 c0defd61        4     1         obj/os_io_seproxyhal.o:(.rodata.seph_io_mcu_protect)
c0defd61 c0defd61        4     1                 seph_io_mcu_protect
c0defd65 c0defd65       20     1         <internal>:(.text)
c0defd85 c0defd85       20     1         obj/stark_crypto.o:(.rodata.STARK_DERIVE_BIAS)
c0defd85 c0defd85       20     1                 STARK_DERIVE_BIAS
c0defda5 c0defda5       20     1         obj/stark_crypto.o:(.rodata.C_cx_Stark256_n)
c0defda5 c0defda5       20     1                 C_cx_Stark256_n
c0defdc5 c0defdc5      104     1         obj/stark_utils.o:(.rodata.PEDERSEN_POINTS)
c0defdc5 c0defdc5      104     1                 PEDERSEN_POINTS
c0defecc c0defecc       41     4         obj/stark_utils.o:(.rodata.PEDERSEN_SHIFT)
c0defecc c0defecc       41     1                 PEDERSEN_SHIFT
c0deff0d c0deff0d        4     1         obj/stark_utils.o:(.rodata.ETH_SELECTOR)
c0deff0d c0deff0d        4     1                 ETH_SELECTOR
c0deff11 c0deff11        a     1         obj/stark_utils.o:(.rodata.MINTABLE_ASSET_ID_PREFIX)
c0deff11 c0deff11        a     1                 MINTABLE_ASSET_ID_PREFIX
c0deff1b c0deff1b       29     1         obj/starkware_plugin.o:(.rodata.DEVERSIFI_CONTRACT)
c0deff1b c0deff1b       29     1                 DEVERSIFI_CONTRACT
c0deff44 c0deff44       14     1         obj/starkware_plugin.o:(.rodata.STARKWARE_EXPECTED_DATA_SIZE)
c0deff44 c0deff44       14     1                 STARKWARE_EXPECTED_DATA_SIZE
c0deff58 c0deff58       14     1         obj/starkware_plugin.o:(.rodata.STARKWARE_NUM_SCREENS)
c0deff58 c0deff58       14     1                 STARKWARE_NUM_SCREENS
c0deff6c c0deff6c        2     1         obj/u2f_impl.o:(.rodata.SW_INTERNAL)
c0deff6c c0deff6c        2     1                 SW_INTERNAL
c0deff6e c0deff6e        2     1         obj/u2f_impl.o:(.rodata.SW_BUSY)
c0deff6e c0deff6e        2     1                 SW_BUSY
c0deff70 c0deff70        2     1         obj/u2f_impl.o:(.rodata.SW_WRONG_LENGTH)
c0deff70 c0deff70        2     1                 SW_WRONG_LENGTH
c0deff72 c0deff72        2     1         obj/u2f_impl.o:(.rodata.SW_PROOF_OF_PRESENCE_REQUIRED)
c0deff72 c0deff72        2     1                 SW_PROOF_OF_PRESENCE_REQUIRED
c0deff74 c0deff74        6     1         obj/u2f_impl.o:(.rodata..L.str)
c0deff74 c0deff74        6     1                 .L.str
c0deff7a c0deff7a        2     1         obj/u2f_impl.o:(.rodata.SW_BAD_KEY_HANDLE)
c0deff7a c0deff7a        2     1                 SW_BAD_KEY_HANDLE
c0deff7c c0deff7c        8     1         obj/u2f_impl.o:(.rodata.U2F_VERSION)
c0deff7c c0deff7c        8     1                 U2F_VERSION
c0deff84 c0deff84        4     1         obj/u2f_impl.o:(.rodata.INFO)
c0deff84 c0deff84        4     1                 INFO
c0deff88 c0deff88        2     1         obj/u2f_impl.o:(.rodata.SW_UNKNOWN_CLASS)
c0deff88 c0deff88        2     1                 SW_UNKNOWN_CLASS
c0deff8a c0deff8a        2     1         obj/u2f_impl.o:(.rodata.SW_UNKNOWN_INSTRUCTION)
c0deff8a c0deff8a        2     1                 SW_UNKNOWN_INSTRUCTION
c0deff8c c0deff8c        2     1         obj/ui_common_signMessage712.o:(.rodata.EIP_712_MAGIC)
c0deff8c c0deff8c        2     1                 EIP_712_MAGIC
c0deff90 c0deff90        8     4         obj/ui_flow.o:(.rodata.ux_idle_flow_1_step_val)
c0deff90 c0deff90        8     1                 ux_idle_flow_1_step_val
c0deff98 c0deff98       10     4         obj/ui_flow.o:(.rodata.ux_idle_flow_1_step)
c0deff98 c0deff98       10     1                 ux_idle_flow_1_step
c0deffa8 c0deffa8        8     4         obj/ui_flow.o:(.rodata.ux_idle_flow_2_step_val)
c0deffa8 c0deffa8        8     1                 ux_idle_flow_2_step_val
c0deffb0 c0deffb0       10     4         obj/ui_flow.o:(.rodata.ux_idle_flow_2_step)
c0deffb0 c0deffb0       10     1                 ux_idle_flow_2_step
c0deffc0 c0deffc0       10     4         obj/ui_flow.o:(.rodata.ux_idle_flow_3_step_validate_step)
c0deffc0 c0deffc0       10     1                 ux_idle_flow_3_step_validate_step
c0deffd0 c0deffd0        8     4         obj/ui_flow.o:(.rodata.ux_idle_flow_3_step_validate)
c0deffd0 c0deffd0        8     1                 ux_idle_flow_3_step_validate
c0deffd8 c0deffd8        8     4         obj/ui_flow.o:(.rodata.ux_idle_flow_3_step_val)
c0deffd8 c0deffd8        8     1                 ux_idle_flow_3_step_val
c0deffe0 c0deffe0       10     4         obj/ui_flow.o:(.rodata.ux_idle_flow_3_step)
c0deffe0 c0deffe0       10     1                 ux_idle_flow_3_step
c0defff0 c0defff0       10     4         obj/ui_flow.o:(.rodata.ux_idle_flow_4_step_validate_step)
c0defff0 c0defff0       10     1                 ux_idle_flow_4_step_validate_step
c0df0000 c0df0000        8     4         obj/ui_flow.o:(.rodata.ux_idle_flow_4_step_validate)
c0df0000 c0df0000        8     1                 ux_idle_flow_4_step_validate
c0df0008 c0df0008        8     4         obj/ui_flow.o:(.rodata.ux_idle_flow_4_step_val)
c0df0008 c0df0008        8     1                 ux_idle_flow_4_step_val
c0df0010 c0df0010       10     4         obj/ui_flow.o:(.rodata.ux_idle_flow_4_step)
c0df0010 c0df0010       10     1                 ux_idle_flow_4_step
c0df0020 c0df0020       18     4         obj/ui_flow.o:(.rodata.ux_idle_flow)
c0df0020 c0df0020       18     1                 ux_idle_flow
c0df0038 c0df0038       10     4         obj/ui_flow.o:(.rodata.ux_settings_flow_1_step_validate_step)
c0df0038 c0df0038       10     1                 ux_settings_flow_1_step_validate_step
c0df0048 c0df0048        8     4         obj/ui_flow.o:(.rodata.ux_settings_flow_1_step_validate)
c0df0048 c0df0048        8     1                 ux_settings_flow_1_step_validate
c0df0050 c0df0050       10     4         obj/ui_flow.o:(.rodata.ux_settings_flow_1_step_val)
c0df0050 c0df0050       10     1                 ux_settings_flow_1_step_val
c0df0060 c0df0060       10     4         obj/ui_flow.o:(.rodata.ux_settings_flow_1_step)
c0df0060 c0df0060       10     1                 ux_settings_flow_1_step
c0df0070 c0df0070       10     4         obj/ui_flow.o:(.rodata.ux_settings_flow_2_step_validate_step)
c0df0070 c0df0070       10     1                 ux_settings_flow_2_step_validate_step
c0df0080 c0df0080        8     4         obj/ui_flow.o:(.rodata.ux_settings_flow_2_step_validate)
c0df0080 c0df0080        8     1                 ux_settings_flow_2_step_validate
c0df0088 c0df0088       10     4         obj/ui_flow.o:(.rodata.ux_settings_flow_2_step_val)
c0df0088 c0df0088       10     1                 ux_settings_flow_2_step_val
c0df0098 c0df0098       10     4         obj/ui_flow.o:(.rodata.ux_settings_flow_2_step)
c0df0098 c0df0098       10     1                 ux_settings_flow_2_step
c0df00a8 c0df00a8       10     4         obj/ui_flow.o:(.rodata.ux_settings_flow_3_step_validate_step)
c0df00a8 c0df00a8       10     1                 ux_settings_flow_3_step_validate_step
c0df00b8 c0df00b8        8     4         obj/ui_flow.o:(.rodata.ux_settings_flow_3_step_validate)
c0df00b8 c0df00b8        8     1                 ux_settings_flow_3_step_validate
c0df00c0 c0df00c0       10     4         obj/ui_flow.o:(.rodata.ux_settings_flow_3_step_val)
c0df00c0 c0df00c0       10     1                 ux_settings_flow_3_step_val
c0df00d0 c0df00d0       10     4         obj/ui_flow.o:(.rodata.ux_settings_flow_3_step)
c0df00d0 c0df00d0       10     1                 ux_settings_flow_3_step
c0df00e0 c0df00e0       10     4         obj/ui_flow.o:(.rodata.ux_settings_flow_4_step_validate_step)
c0df00e0 c0df00e0       10     1                 ux_settings_flow_4_step_validate_step
c0df00f0 c0df00f0        8     4         obj/ui_flow.o:(.rodata.ux_settings_flow_4_step_validate)
c0df00f0 c0df00f0        8     1                 ux_settings_flow_4_step_validate
c0df00f8 c0df00f8       10     4         obj/ui_flow.o:(.rodata.ux_settings_flow_4_step_val)
c0df00f8 c0df00f8       10     1                 ux_settings_flow_4_step_val
c0df0108 c0df0108       10     4         obj/ui_flow.o:(.rodata.ux_settings_flow_4_step)
c0df0108 c0df0108       10     1                 ux_settings_flow_4_step
c0df0118 c0df0118       10     4         obj/ui_flow.o:(.rodata.ux_settings_flow_5_step_validate_step)
c0df0118 c0df0118       10     1                 ux_settings_flow_5_step_validate_step
c0df0128 c0df0128        8     4         obj/ui_flow.o:(.rodata.ux_settings_flow_5_step_validate)
c0df0128 c0df0128        8     1                 ux_settings_flow_5_step_validate
c0df0130 c0df0130        8     4         obj/ui_flow.o:(.rodata.ux_settings_flow_5_step_val)
c0df0130 c0df0130        8     1                 ux_settings_flow_5_step_val
c0df0138 c0df0138       10     4         obj/ui_flow.o:(.rodata.ux_settings_flow_5_step)
c0df0138 c0df0138       10     1                 ux_settings_flow_5_step
c0df0148 c0df0148       18     4         obj/ui_flow.o:(.rodata.ux_settings_flow)
c0df0148 c0df0148       18     1                 ux_settings_flow
c0df0160 c0df0160       10     4         obj/ui_flow.o:(.rodata.ux_warning_contract_data_step_validate_step)
c0df0160 c0df0160       10     1                 ux_warning_contract_data_step_validate_step
c0df0170 c0df0170        8     4         obj/ui_flow.o:(.rodata.ux_warning_contract_data_step_validate)
c0df0170 c0df0170        8     1                 ux_warning_contract_data_step_validate
c0df0178 c0df0178        c     4         obj/ui_flow.o:(.rodata.ux_warning_contract_data_step_val)
c0df0178 c0df0178        c     1                 ux_warning_contract_data_step_val
c0df0184 c0df0184       10     4         obj/ui_flow.o:(.rodata.ux_warning_contract_data_step)
c0df0184 c0df0184       10     1                 ux_warning_contract_data_step
c0df0194 c0df0194       10     4         obj/ui_flow.o:(.rodata.ux_warning_oracle_data_step_validate_step)
c0df0194 c0df0194       10     1                 ux_warning_oracle_data_step_validate_step
c0df01a4 c0df01a4        8     4         obj/ui_flow.o:(.rodata.ux_warning_oracle_data_step_validate)
c0df01a4 c0df01a4        8     1                 ux_warning_oracle_data_step_validate
c0df01ac c0df01ac        c     4         obj/ui_flow.o:(.rodata.ux_warning_oracle_data_step_val)
c0df01ac c0df01ac        c     1                 ux_warning_oracle_data_step_val
c0df01b8 c0df01b8       10     4         obj/ui_flow.o:(.rodata.ux_warning_oracle_data_step)
c0df01b8 c0df01b8       10     1                 ux_warning_oracle_data_step
c0df01c8 c0df01c8        8     4         obj/ui_flow.o:(.rodata.ux_warning_contract_data_flow)
c0df01c8 c0df01c8        8     1                 ux_warning_contract_data_flow
c0df01d0 c0df01d0        8     4         obj/ui_flow.o:(.rodata.ux_warning_oracle_data_flow)
c0df01d0 c0df01d0        8     1                 ux_warning_oracle_data_flow
c0df01d8 c0df01d8        c     4         obj/ui_flow_getEth2PublicKey.o:(.rodata.ux_display_public_eth2_flow_1_step_val)
c0df01d8 c0df01d8        c     1                 ux_display_public_eth2_flow_1_step_val
c0df01e4 c0df01e4       10     4         obj/ui_flow_getEth2PublicKey.o:(.rodata.ux_display_public_eth2_flow_1_step)
c0df01e4 c0df01e4       10     1                 ux_display_public_eth2_flow_1_step
c0df01f4 c0df01f4        8     4         obj/ui_flow_getEth2PublicKey.o:(.rodata.ux_display_public_eth2_flow_2_step_val)
c0df01f4 c0df01f4        8     1                 ux_display_public_eth2_flow_2_step_val
c0df01fc c0df01fc       10     4         obj/ui_flow_getEth2PublicKey.o:(.rodata.ux_display_public_eth2_flow_2_step)
c0df01fc c0df01fc       10     1                 ux_display_public_eth2_flow_2_step
c0df020c c0df020c       10     4         obj/ui_flow_getEth2PublicKey.o:(.rodata.ux_display_public_eth2_flow_3_step_validate_step)
c0df020c c0df020c       10     1                 ux_display_public_eth2_flow_3_step_validate_step
c0df021c c0df021c        8     4         obj/ui_flow_getEth2PublicKey.o:(.rodata.ux_display_public_eth2_flow_3_step_validate)
c0df021c c0df021c        8     1                 ux_display_public_eth2_flow_3_step_validate
c0df0224 c0df0224        8     4         obj/ui_flow_getEth2PublicKey.o:(.rodata.ux_display_public_eth2_flow_3_step_val)
c0df0224 c0df0224        8     1                 ux_display_public_eth2_flow_3_step_val
c0df022c c0df022c       10     4         obj/ui_flow_getEth2PublicKey.o:(.rodata.ux_display_public_eth2_flow_3_step)
c0df022c c0df022c       10     1                 ux_display_public_eth2_flow_3_step
c0df023c c0df023c       10     4         obj/ui_flow_getEth2PublicKey.o:(.rodata.ux_display_public_eth2_flow_4_step_validate_step)
c0df023c c0df023c       10     1                 ux_display_public_eth2_flow_4_step_validate_step
c0df024c c0df024c        8     4         obj/ui_flow_getEth2PublicKey.o:(.rodata.ux_display_public_eth2_flow_4_step_validate)
c0df024c c0df024c        8     1                 ux_display_public_eth2_flow_4_step_validate
c0df0254 c0df0254        8     4         obj/ui_flow_getEth2PublicKey.o:(.rodata.ux_display_public_eth2_flow_4_step_val)
c0df0254 c0df0254        8     1                 ux_display_public_eth2_flow_4_step_val
c0df025c c0df025c       10     4         obj/ui_flow_getEth2PublicKey.o:(.rodata.ux_display_public_eth2_flow_4_step)
c0df025c c0df025c       10     1                 ux_display_public_eth2_flow_4_step
c0df026c c0df026c       14     4         obj/ui_flow_getEth2PublicKey.o:(.rodata.ux_display_public_eth2_flow)
c0df026c c0df026c       14     1                 ux_display_public_eth2_flow
c0df0280 c0df0280        c     4         obj/ui_flow_getPublicKey.o:(.rodata.ux_display_public_flow_1_step_val)
c0df0280 c0df0280        c     1                 ux_display_public_flow_1_step_val
c0df028c c0df028c       10     4         obj/ui_flow_getPublicKey.o:(.rodata.ux_display_public_flow_1_step)
c0df028c c0df028c       10     1                 ux_display_public_flow_1_step
c0df029c c0df029c        8     4         obj/ui_flow_getPublicKey.o:(.rodata.ux_display_public_flow_2_step_val)
c0df029c c0df029c        8     1                 ux_display_public_flow_2_step_val
c0df02a4 c0df02a4       10     4         obj/ui_flow_getPublicKey.o:(.rodata.ux_display_public_flow_2_step)
c0df02a4 c0df02a4       10     1                 ux_display_public_flow_2_step
c0df02b4 c0df02b4       10     4         obj/ui_flow_getPublicKey.o:(.rodata.ux_display_public_flow_3_step_validate_step)
c0df02b4 c0df02b4       10     1                 ux_display_public_flow_3_step_validate_step
c0df02c4 c0df02c4        8     4         obj/ui_flow_getPublicKey.o:(.rodata.ux_display_public_flow_3_step_validate)
c0df02c4 c0df02c4        8     1                 ux_display_public_flow_3_step_validate
c0df02cc c0df02cc        8     4         obj/ui_flow_getPublicKey.o:(.rodata.ux_display_public_flow_3_step_val)
c0df02cc c0df02cc        8     1                 ux_display_public_flow_3_step_val
c0df02d4 c0df02d4       10     4         obj/ui_flow_getPublicKey.o:(.rodata.ux_display_public_flow_3_step)
c0df02d4 c0df02d4       10     1                 ux_display_public_flow_3_step
c0df02e4 c0df02e4       10     4         obj/ui_flow_getPublicKey.o:(.rodata.ux_display_public_flow_4_step_validate_step)
c0df02e4 c0df02e4       10     1                 ux_display_public_flow_4_step_validate_step
c0df02f4 c0df02f4        8     4         obj/ui_flow_getPublicKey.o:(.rodata.ux_display_public_flow_4_step_validate)
c0df02f4 c0df02f4        8     1                 ux_display_public_flow_4_step_validate
c0df02fc c0df02fc        8     4         obj/ui_flow_getPublicKey.o:(.rodata.ux_display_public_flow_4_step_val)
c0df02fc c0df02fc        8     1                 ux_display_public_flow_4_step_val
c0df0304 c0df0304       10     4         obj/ui_flow_getPublicKey.o:(.rodata.ux_display_public_flow_4_step)
c0df0304 c0df0304       10     1                 ux_display_public_flow_4_step
c0df0314 c0df0314       14     4         obj/ui_flow_getPublicKey.o:(.rodata.ux_display_public_flow)
c0df0314 c0df0314       14     1                 ux_display_public_flow
c0df0328 c0df0328        c     4         obj/ui_flow_performPrivacyOperation.o:(.rodata.ux_display_privacy_public_key_flow_1_step_val)
c0df0328 c0df0328        c     1                 ux_display_privacy_public_key_flow_1_step_val
c0df0334 c0df0334       10     4         obj/ui_flow_performPrivacyOperation.o:(.rodata.ux_display_privacy_public_key_flow_1_step)
c0df0334 c0df0334       10     1                 ux_display_privacy_public_key_flow_1_step
c0df0344 c0df0344        8     4         obj/ui_flow_performPrivacyOperation.o:(.rodata.ux_display_privacy_public_key_flow_2_step_val)
c0df0344 c0df0344        8     1                 ux_display_privacy_public_key_flow_2_step_val
c0df034c c0df034c       10     4         obj/ui_flow_performPrivacyOperation.o:(.rodata.ux_display_privacy_public_key_flow_2_step)
c0df034c c0df034c       10     1                 ux_display_privacy_public_key_flow_2_step
c0df035c c0df035c        8     4         obj/ui_flow_performPrivacyOperation.o:(.rodata.ux_display_privacy_public_key_flow_3_step_val)
c0df035c c0df035c        8     1                 ux_display_privacy_public_key_flow_3_step_val
c0df0364 c0df0364       10     4         obj/ui_flow_performPrivacyOperation.o:(.rodata.ux_display_privacy_public_key_flow_3_step)
c0df0364 c0df0364       10     1                 ux_display_privacy_public_key_flow_3_step
c0df0374 c0df0374       10     4         obj/ui_flow_performPrivacyOperation.o:(.rodata.ux_display_privacy_public_key_flow_4_step_validate_step)
c0df0374 c0df0374       10     1                 ux_display_privacy_public_key_flow_4_step_validate_step
c0df0384 c0df0384        8     4         obj/ui_flow_performPrivacyOperation.o:(.rodata.ux_display_privacy_public_key_flow_4_step_validate)
c0df0384 c0df0384        8     1                 ux_display_privacy_public_key_flow_4_step_validate
c0df038c c0df038c        8     4         obj/ui_flow_performPrivacyOperation.o:(.rodata.ux_display_privacy_public_key_flow_4_step_val)
c0df038c c0df038c        8     1                 ux_display_privacy_public_key_flow_4_step_val
c0df0394 c0df0394       10     4         obj/ui_flow_performPrivacyOperation.o:(.rodata.ux_display_privacy_public_key_flow_4_step)
c0df0394 c0df0394       10     1                 ux_display_privacy_public_key_flow_4_step
c0df03a4 c0df03a4       10     4         obj/ui_flow_performPrivacyOperation.o:(.rodata.ux_display_privacy_public_key_flow_5_step_validate_step)
c0df03a4 c0df03a4       10     1                 ux_display_privacy_public_key_flow_5_step_validate_step
c0df03b4 c0df03b4        8     4         obj/ui_flow_performPrivacyOperation.o:(.rodata.ux_display_privacy_public_key_flow_5_step_validate)
c0df03b4 c0df03b4        8     1                 ux_display_privacy_public_key_flow_5_step_validate
c0df03bc c0df03bc        8     4         obj/ui_flow_performPrivacyOperation.o:(.rodata.ux_display_privacy_public_key_flow_5_step_val)
c0df03bc c0df03bc        8     1                 ux_display_privacy_public_key_flow_5_step_val
c0df03c4 c0df03c4       10     4         obj/ui_flow_performPrivacyOperation.o:(.rodata.ux_display_privacy_public_key_flow_5_step)
c0df03c4 c0df03c4       10     1                 ux_display_privacy_public_key_flow_5_step
c0df03d4 c0df03d4        c     4         obj/ui_flow_performPrivacyOperation.o:(.rodata.ux_display_privacy_shared_secret_flow_1_step_val)
c0df03d4 c0df03d4        c     1                 ux_display_privacy_shared_secret_flow_1_step_val
c0df03e0 c0df03e0       10     4         obj/ui_flow_performPrivacyOperation.o:(.rodata.ux_display_privacy_shared_secret_flow_1_step)
c0df03e0 c0df03e0       10     1                 ux_display_privacy_shared_secret_flow_1_step
c0df03f0 c0df03f0       18     4         obj/ui_flow_performPrivacyOperation.o:(.rodata.ux_display_privacy_public_key_flow)
c0df03f0 c0df03f0       18     1                 ux_display_privacy_public_key_flow
c0df0408 c0df0408       18     4         obj/ui_flow_performPrivacyOperation.o:(.rodata.ux_display_privacy_shared_secret_flow)
c0df0408 c0df0408       18     1                 ux_display_privacy_shared_secret_flow
c0df0420 c0df0420        c     4         obj/ui_flow_signMessage.o:(.rodata.ux_sign_flow_1_step_val)
c0df0420 c0df0420        c     1                 ux_sign_flow_1_step_val
c0df042c c0df042c       10     4         obj/ui_flow_signMessage.o:(.rodata.ux_sign_flow_1_step)
c0df042c c0df042c       10     1                 ux_sign_flow_1_step
c0df043c c0df043c        8     4         obj/ui_flow_signMessage.o:(.rodata.ux_sign_flow_2_step_val)
c0df043c c0df043c        8     1                 ux_sign_flow_2_step_val
c0df0444 c0df0444       10     4         obj/ui_flow_signMessage.o:(.rodata.ux_sign_flow_2_step)
c0df0444 c0df0444       10     1                 ux_sign_flow_2_step
c0df0454 c0df0454       10     4         obj/ui_flow_signMessage.o:(.rodata.ux_sign_flow_3_step_validate_step)
c0df0454 c0df0454       10     1                 ux_sign_flow_3_step_validate_step
c0df0464 c0df0464        8     4         obj/ui_flow_signMessage.o:(.rodata.ux_sign_flow_3_step_validate)
c0df0464 c0df0464        8     1                 ux_sign_flow_3_step_validate
c0df046c c0df046c        c     4         obj/ui_flow_signMessage.o:(.rodata.ux_sign_flow_3_step_val)
c0df046c c0df046c        c     1                 ux_sign_flow_3_step_val
c0df0478 c0df0478       10     4         obj/ui_flow_signMessage.o:(.rodata.ux_sign_flow_3_step)
c0df0478 c0df0478       10     1                 ux_sign_flow_3_step
c0df0488 c0df0488       10     4         obj/ui_flow_signMessage.o:(.rodata.ux_sign_flow_4_step_validate_step)
c0df0488 c0df0488       10     1                 ux_sign_flow_4_step_validate_step
c0df0498 c0df0498        8     4         obj/ui_flow_signMessage.o:(.rodata.ux_sign_flow_4_step_validate)
c0df0498 c0df0498        8     1                 ux_sign_flow_4_step_validate
c0df04a0 c0df04a0        c     4         obj/ui_flow_signMessage.o:(.rodata.ux_sign_flow_4_step_val)
c0df04a0 c0df04a0        c     1                 ux_sign_flow_4_step_val
c0df04ac c0df04ac       10     4         obj/ui_flow_signMessage.o:(.rodata.ux_sign_flow_4_step)
c0df04ac c0df04ac       10     1                 ux_sign_flow_4_step
c0df04bc c0df04bc       14     4         obj/ui_flow_signMessage.o:(.rodata.ux_sign_flow)
c0df04bc c0df04bc       14     1                 ux_sign_flow
c0df04d0 c0df04d0        c     4         obj/ui_flow_signMessage712.o:(.rodata.ux_sign_712_v0_flow_1_step_val)
c0df04d0 c0df04d0        c     1                 ux_sign_712_v0_flow_1_step_val
c0df04dc c0df04dc       10     4         obj/ui_flow_signMessage712.o:(.rodata.ux_sign_712_v0_flow_1_step)
c0df04dc c0df04dc       10     1                 ux_sign_712_v0_flow_1_step
c0df04ec c0df04ec        8     4         obj/ui_flow_signMessage712.o:(.rodata.ux_sign_712_v0_flow_2_step_val)
c0df04ec c0df04ec        8     1                 ux_sign_712_v0_flow_2_step_val
c0df04f4 c0df04f4       10     4         obj/ui_flow_signMessage712.o:(.rodata.ux_sign_712_v0_flow_2_step)
c0df04f4 c0df04f4       10     1                 ux_sign_712_v0_flow_2_step
c0df0504 c0df0504        8     4         obj/ui_flow_signMessage712.o:(.rodata.ux_sign_712_v0_flow_3_step_val)
c0df0504 c0df0504        8     1                 ux_sign_712_v0_flow_3_step_val
c0df050c c0df050c       10     4         obj/ui_flow_signMessage712.o:(.rodata.ux_sign_712_v0_flow_3_step)
c0df050c c0df050c       10     1                 ux_sign_712_v0_flow_3_step
c0df051c c0df051c       10     4         obj/ui_flow_signMessage712.o:(.rodata.ux_sign_712_v0_flow_4_step_validate_step)
c0df051c c0df051c       10     1                 ux_sign_712_v0_flow_4_step_validate_step
c0df052c c0df052c        8     4         obj/ui_flow_signMessage712.o:(.rodata.ux_sign_712_v0_flow_4_step_validate)
c0df052c c0df052c        8     1                 ux_sign_712_v0_flow_4_step_validate
c0df0534 c0df0534        c     4         obj/ui_flow_signMessage712.o:(.rodata.ux_sign_712_v0_flow_4_step_val)
c0df0534 c0df0534        c     1                 ux_sign_712_v0_flow_4_step_val
c0df0540 c0df0540       10     4         obj/ui_flow_signMessage712.o:(.rodata.ux_sign_712_v0_flow_4_step)
c0df0540 c0df0540       10     1                 ux_sign_712_v0_flow_4_step
c0df0550 c0df0550       10     4         obj/ui_flow_signMessage712.o:(.rodata.ux_sign_712_v0_flow_5_step_validate_step)
c0df0550 c0df0550       10     1                 ux_sign_712_v0_flow_5_step_validate_step
c0df0560 c0df0560        8     4         obj/ui_flow_signMessage712.o:(.rodata.ux_sign_712_v0_flow_5_step_validate)
c0df0560 c0df0560        8     1                 ux_sign_712_v0_flow_5_step_validate
c0df0568 c0df0568        c     4         obj/ui_flow_signMessage712.o:(.rodata.ux_sign_712_v0_flow_5_step_val)
c0df0568 c0df0568        c     1                 ux_sign_712_v0_flow_5_step_val
c0df0574 c0df0574       10     4         obj/ui_flow_signMessage712.o:(.rodata.ux_sign_712_v0_flow_5_step)
c0df0574 c0df0574       10     1                 ux_sign_712_v0_flow_5_step
c0df0584 c0df0584       18     4         obj/ui_flow_signMessage712.o:(.rodata.ux_sign_712_v0_flow)
c0df0584 c0df0584       18     1                 ux_sign_712_v0_flow
c0df059c c0df059c        c     4         obj/ui_flow_signTx.o:(.rodata.ux_confirm_selector_flow_1_step_val)
c0df059c c0df059c        c     1                 ux_confirm_selector_flow_1_step_val
c0df05a8 c0df05a8       10     4         obj/ui_flow_signTx.o:(.rodata.ux_confirm_selector_flow_1_step)
c0df05a8 c0df05a8       10     1                 ux_confirm_selector_flow_1_step
c0df05b8 c0df05b8        8     4         obj/ui_flow_signTx.o:(.rodata.ux_confirm_selector_flow_2_step_val)
c0df05b8 c0df05b8        8     1                 ux_confirm_selector_flow_2_step_val
c0df05c0 c0df05c0       10     4         obj/ui_flow_signTx.o:(.rodata.ux_confirm_selector_flow_2_step)
c0df05c0 c0df05c0       10     1                 ux_confirm_selector_flow_2_step
c0df05d0 c0df05d0       10     4         obj/ui_flow_signTx.o:(.rodata.ux_confirm_selector_flow_3_step_validate_step)
c0df05d0 c0df05d0       10     1                 ux_confirm_selector_flow_3_step_validate_step
c0df05e0 c0df05e0        8     4         obj/ui_flow_signTx.o:(.rodata.ux_confirm_selector_flow_3_step_validate)
c0df05e0 c0df05e0        8     1                 ux_confirm_selector_flow_3_step_validate
c0df05e8 c0df05e8        8     4         obj/ui_flow_signTx.o:(.rodata.ux_confirm_selector_flow_3_step_val)
c0df05e8 c0df05e8        8     1                 ux_confirm_selector_flow_3_step_val
c0df05f0 c0df05f0       10     4         obj/ui_flow_signTx.o:(.rodata.ux_confirm_selector_flow_3_step)
c0df05f0 c0df05f0       10     1                 ux_confirm_selector_flow_3_step
c0df0600 c0df0600       10     4         obj/ui_flow_signTx.o:(.rodata.ux_confirm_selector_flow_4_step_validate_step)
c0df0600 c0df0600       10     1                 ux_confirm_selector_flow_4_step_validate_step
c0df0610 c0df0610        8     4         obj/ui_flow_signTx.o:(.rodata.ux_confirm_selector_flow_4_step_validate)
c0df0610 c0df0610        8     1                 ux_confirm_selector_flow_4_step_validate
c0df0618 c0df0618        8     4         obj/ui_flow_signTx.o:(.rodata.ux_confirm_selector_flow_4_step_val)
c0df0618 c0df0618        8     1                 ux_confirm_selector_flow_4_step_val
c0df0620 c0df0620       10     4         obj/ui_flow_signTx.o:(.rodata.ux_confirm_selector_flow_4_step)
c0df0620 c0df0620       10     1                 ux_confirm_selector_flow_4_step
c0df0630 c0df0630       14     4         obj/ui_flow_signTx.o:(.rodata.ux_confirm_selector_flow)
c0df0630 c0df0630       14     1                 ux_confirm_selector_flow
c0df0644 c0df0644        c     4         obj/ui_flow_signTx.o:(.rodata.ux_confirm_parameter_flow_1_step_val)
c0df0644 c0df0644        c     1                 ux_confirm_parameter_flow_1_step_val
c0df0650 c0df0650       10     4         obj/ui_flow_signTx.o:(.rodata.ux_confirm_parameter_flow_1_step)
c0df0650 c0df0650       10     1                 ux_confirm_parameter_flow_1_step
c0df0660 c0df0660        8     4         obj/ui_flow_signTx.o:(.rodata.ux_confirm_parameter_flow_2_step_val)
c0df0660 c0df0660        8     1                 ux_confirm_parameter_flow_2_step_val
c0df0668 c0df0668       10     4         obj/ui_flow_signTx.o:(.rodata.ux_confirm_parameter_flow_2_step)
c0df0668 c0df0668       10     1                 ux_confirm_parameter_flow_2_step
c0df0678 c0df0678       10     4         obj/ui_flow_signTx.o:(.rodata.ux_confirm_parameter_flow_3_step_validate_step)
c0df0678 c0df0678       10     1                 ux_confirm_parameter_flow_3_step_validate_step
c0df0688 c0df0688        8     4         obj/ui_flow_signTx.o:(.rodata.ux_confirm_parameter_flow_3_step_validate)
c0df0688 c0df0688        8     1                 ux_confirm_parameter_flow_3_step_validate
c0df0690 c0df0690        8     4         obj/ui_flow_signTx.o:(.rodata.ux_confirm_parameter_flow_3_step_val)
c0df0690 c0df0690        8     1                 ux_confirm_parameter_flow_3_step_val
c0df0698 c0df0698       10     4         obj/ui_flow_signTx.o:(.rodata.ux_confirm_parameter_flow_3_step)
c0df0698 c0df0698       10     1                 ux_confirm_parameter_flow_3_step
c0df06a8 c0df06a8       10     4         obj/ui_flow_signTx.o:(.rodata.ux_confirm_parameter_flow_4_step_validate_step)
c0df06a8 c0df06a8       10     1                 ux_confirm_parameter_flow_4_step_validate_step
c0df06b8 c0df06b8        8     4         obj/ui_flow_signTx.o:(.rodata.ux_confirm_parameter_flow_4_step_validate)
c0df06b8 c0df06b8        8     1                 ux_confirm_parameter_flow_4_step_validate
c0df06c0 c0df06c0        8     4         obj/ui_flow_signTx.o:(.rodata.ux_confirm_parameter_flow_4_step_val)
c0df06c0 c0df06c0        8     1                 ux_confirm_parameter_flow_4_step_val
c0df06c8 c0df06c8       10     4         obj/ui_flow_signTx.o:(.rodata.ux_confirm_parameter_flow_4_step)
c0df06c8 c0df06c8       10     1                 ux_confirm_parameter_flow_4_step
c0df06d8 c0df06d8       14     4         obj/ui_flow_signTx.o:(.rodata.ux_confirm_parameter_flow)
c0df06d8 c0df06d8       14     1                 ux_confirm_parameter_flow
c0df06ec c0df06ec        c     4         obj/ui_flow_signTx.o:(.rodata.ux_approval_review_step_val)
c0df06ec c0df06ec        c     1                 ux_approval_review_step_val
c0df06f8 c0df06f8       10     4         obj/ui_flow_signTx.o:(.rodata.ux_approval_review_step)
c0df06f8 c0df06f8       10     1                 ux_approval_review_step
c0df0708 c0df0708        8     4         obj/ui_flow_signTx.o:(.rodata.ux_approval_amount_step_val)
c0df0708 c0df0708        8     1                 ux_approval_amount_step_val
c0df0710 c0df0710       10     4         obj/ui_flow_signTx.o:(.rodata.ux_approval_amount_step)
c0df0710 c0df0710       10     1                 ux_approval_amount_step
c0df0720 c0df0720        8     4         obj/ui_flow_signTx.o:(.rodata.ux_approval_address_step_val)
c0df0720 c0df0720        8     1                 ux_approval_address_step_val
c0df0728 c0df0728       10     4         obj/ui_flow_signTx.o:(.rodata.ux_approval_address_step)
c0df0728 c0df0728       10     1                 ux_approval_address_step
c0df0738 c0df0738        8     4         obj/ui_flow_signTx.o:(.rodata.ux_plugin_approval_id_step_val)
c0df0738 c0df0738        8     1                 ux_plugin_approval_id_step_val
c0df0740 c0df0740       10     4         obj/ui_flow_signTx.o:(.rodata.ux_plugin_approval_id_step)
c0df0740 c0df0740       10     1                 ux_plugin_approval_id_step
c0df0750 c0df0750       10     4         obj/ui_flow_signTx.o:(.rodata.ux_plugin_approval_before_step)
c0df0750 c0df0750       10     1                 ux_plugin_approval_before_step
c0df0760 c0df0760        8     4         obj/ui_flow_signTx.o:(.rodata.ux_plugin_approval_display_step_val)
c0df0760 c0df0760        8     1                 ux_plugin_approval_display_step_val
c0df0768 c0df0768       10     4         obj/ui_flow_signTx.o:(.rodata.ux_plugin_approval_display_step)
c0df0768 c0df0768       10     1                 ux_plugin_approval_display_step
c0df0778 c0df0778       10     4         obj/ui_flow_signTx.o:(.rodata.ux_plugin_approval_after_step)
c0df0778 c0df0778       10     1                 ux_plugin_approval_after_step
c0df0788 c0df0788        8     4         obj/ui_flow_signTx.o:(.rodata.ux_approval_fees_step_val)
c0df0788 c0df0788        8     1                 ux_approval_fees_step_val
c0df0790 c0df0790       10     4         obj/ui_flow_signTx.o:(.rodata.ux_approval_fees_step)
c0df0790 c0df0790       10     1                 ux_approval_fees_step
c0df07a0 c0df07a0        8     4         obj/ui_flow_signTx.o:(.rodata.ux_approval_network_step_val)
c0df07a0 c0df07a0        8     1                 ux_approval_network_step_val
c0df07a8 c0df07a8       10     4         obj/ui_flow_signTx.o:(.rodata.ux_approval_network_step)
c0df07a8 c0df07a8       10     1                 ux_approval_network_step
c0df07b8 c0df07b8       10     4         obj/ui_flow_signTx.o:(.rodata.ux_approval_accept_step_validate_step)
c0df07b8 c0df07b8       10     1                 ux_approval_accept_step_validate_step
c0df07c8 c0df07c8        8     4         obj/ui_flow_signTx.o:(.rodata.ux_approval_accept_step_validate)
c0df07c8 c0df07c8        8     1                 ux_approval_accept_step_validate
c0df07d0 c0df07d0        c     4         obj/ui_flow_signTx.o:(.rodata.ux_approval_accept_step_val)
c0df07d0 c0df07d0        c     1                 ux_approval_accept_step_val
c0df07dc c0df07dc       10     4         obj/ui_flow_signTx.o:(.rodata.ux_approval_accept_step)
c0df07dc c0df07dc       10     1                 ux_approval_accept_step
c0df07ec c0df07ec       10     4         obj/ui_flow_signTx.o:(.rodata.ux_approval_reject_step_validate_step)
c0df07ec c0df07ec       10     1                 ux_approval_reject_step_validate_step
c0df07fc c0df07fc        8     4         obj/ui_flow_signTx.o:(.rodata.ux_approval_reject_step_validate)
c0df07fc c0df07fc        8     1                 ux_approval_reject_step_validate
c0df0804 c0df0804        8     4         obj/ui_flow_signTx.o:(.rodata.ux_approval_reject_step_val)
c0df0804 c0df0804        8     1                 ux_approval_reject_step_val
c0df080c c0df080c       10     4         obj/ui_flow_signTx.o:(.rodata.ux_approval_reject_step)
c0df080c c0df080c       10     1                 ux_approval_reject_step
c0df081c c0df081c        8     4         obj/ui_flow_signTx.o:(.rodata.ux_approval_nonce_step_val)
c0df081c c0df081c        8     1                 ux_approval_nonce_step_val
c0df0824 c0df0824       10     4         obj/ui_flow_signTx.o:(.rodata.ux_approval_nonce_step)
c0df0824 c0df0824       10     1                 ux_approval_nonce_step
c0df0834 c0df0834        c     4         obj/ui_flow_signTx.o:(.rodata.ux_approval_blind_signing_warning_step_val)
c0df0834 c0df0834        c     1                 ux_approval_blind_signing_warning_step_val
c0df0840 c0df0840       10     4         obj/ui_flow_signTx.o:(.rodata.ux_approval_blind_signing_warning_step)
c0df0840 c0df0840       10     1                 ux_approval_blind_signing_warning_step
c0df0850 c0df0850        8     4         obj/ui_flow_signTx.o:(.rodata.ux_approval_oracle_data_val)
c0df0850 c0df0850        8     1                 ux_approval_oracle_data_val
c0df0858 c0df0858       10     4         obj/ui_flow_signTx.o:(.rodata.ux_approval_oracle_data)
c0df0858 c0df0858       10     1                 ux_approval_oracle_data
c0df0868 c0df0868        c     4         obj/ui_flow_stark_getPublicKey.o:(.rodata.ux_display_stark_public_flow_1_step_val)
c0df0868 c0df0868        c     1                 ux_display_stark_public_flow_1_step_val
c0df0874 c0df0874       10     4         obj/ui_flow_stark_getPublicKey.o:(.rodata.ux_display_stark_public_flow_1_step)
c0df0874 c0df0874       10     1                 ux_display_stark_public_flow_1_step
c0df0884 c0df0884        8     4         obj/ui_flow_stark_getPublicKey.o:(.rodata.ux_display_stark_public_flow_2_step_val)
c0df0884 c0df0884        8     1                 ux_display_stark_public_flow_2_step_val
c0df088c c0df088c       10     4         obj/ui_flow_stark_getPublicKey.o:(.rodata.ux_display_stark_public_flow_2_step)
c0df088c c0df088c       10     1                 ux_display_stark_public_flow_2_step
c0df089c c0df089c       10     4         obj/ui_flow_stark_getPublicKey.o:(.rodata.ux_display_stark_public_flow_3_step_validate_step)
c0df089c c0df089c       10     1                 ux_display_stark_public_flow_3_step_validate_step
c0df08ac c0df08ac        8     4         obj/ui_flow_stark_getPublicKey.o:(.rodata.ux_display_stark_public_flow_3_step_validate)
c0df08ac c0df08ac        8     1                 ux_display_stark_public_flow_3_step_validate
c0df08b4 c0df08b4        8     4         obj/ui_flow_stark_getPublicKey.o:(.rodata.ux_display_stark_public_flow_3_step_val)
c0df08b4 c0df08b4        8     1                 ux_display_stark_public_flow_3_step_val
c0df08bc c0df08bc       10     4         obj/ui_flow_stark_getPublicKey.o:(.rodata.ux_display_stark_public_flow_3_step)
c0df08bc c0df08bc       10     1                 ux_display_stark_public_flow_3_step
c0df08cc c0df08cc       10     4         obj/ui_flow_stark_getPublicKey.o:(.rodata.ux_display_stark_public_flow_4_step_validate_step)
c0df08cc c0df08cc       10     1                 ux_display_stark_public_flow_4_step_validate_step
c0df08dc c0df08dc        8     4         obj/ui_flow_stark_getPublicKey.o:(.rodata.ux_display_stark_public_flow_4_step_validate)
c0df08dc c0df08dc        8     1                 ux_display_stark_public_flow_4_step_validate
c0df08e4 c0df08e4        8     4         obj/ui_flow_stark_getPublicKey.o:(.rodata.ux_display_stark_public_flow_4_step_val)
c0df08e4 c0df08e4        8     1                 ux_display_stark_public_flow_4_step_val
c0df08ec c0df08ec       10     4         obj/ui_flow_stark_getPublicKey.o:(.rodata.ux_display_stark_public_flow_4_step)
c0df08ec c0df08ec       10     1                 ux_display_stark_public_flow_4_step
c0df08fc c0df08fc       14     4         obj/ui_flow_stark_getPublicKey.o:(.rodata.ux_display_stark_public_flow)
c0df08fc c0df08fc       14     1                 ux_display_stark_public_flow
c0df0910 c0df0910        c     4         obj/ui_flow_stark_sign.o:(.rodata.ux_stark_limit_order_1_step_val)
c0df0910 c0df0910        c     1                 ux_stark_limit_order_1_step_val
c0df091c c0df091c       10     4         obj/ui_flow_stark_sign.o:(.rodata.ux_stark_limit_order_1_step)
c0df091c c0df091c       10     1                 ux_stark_limit_order_1_step
c0df092c c0df092c        8     4         obj/ui_flow_stark_sign.o:(.rodata.ux_stark_limit_order_2_step_val)
c0df092c c0df092c        8     1                 ux_stark_limit_order_2_step_val
c0df0934 c0df0934       10     4         obj/ui_flow_stark_sign.o:(.rodata.ux_stark_limit_order_2_step)
c0df0934 c0df0934       10     1                 ux_stark_limit_order_2_step
c0df0944 c0df0944        8     4         obj/ui_flow_stark_sign.o:(.rodata.ux_stark_limit_order_3_step_val)
c0df0944 c0df0944        8     1                 ux_stark_limit_order_3_step_val
c0df094c c0df094c       10     4         obj/ui_flow_stark_sign.o:(.rodata.ux_stark_limit_order_3_step)
c0df094c c0df094c       10     1                 ux_stark_limit_order_3_step
c0df095c c0df095c        8     4         obj/ui_flow_stark_sign.o:(.rodata.ux_stark_limit_order_4_step_val)
c0df095c c0df095c        8     1                 ux_stark_limit_order_4_step_val
c0df0964 c0df0964       10     4         obj/ui_flow_stark_sign.o:(.rodata.ux_stark_limit_order_4_step)
c0df0964 c0df0964       10     1                 ux_stark_limit_order_4_step
c0df0974 c0df0974        8     4         obj/ui_flow_stark_sign.o:(.rodata.ux_stark_limit_order_5_step_val)
c0df0974 c0df0974        8     1                 ux_stark_limit_order_5_step_val
c0df097c c0df097c       10     4         obj/ui_flow_stark_sign.o:(.rodata.ux_stark_limit_order_5_step)
c0df097c c0df097c       10     1                 ux_stark_limit_order_5_step
c0df098c c0df098c        8     4         obj/ui_flow_stark_sign.o:(.rodata.ux_stark_limit_order_6_step_val)
c0df098c c0df098c        8     1                 ux_stark_limit_order_6_step_val
c0df0994 c0df0994       10     4         obj/ui_flow_stark_sign.o:(.rodata.ux_stark_limit_order_6_step)
c0df0994 c0df0994       10     1                 ux_stark_limit_order_6_step
c0df09a4 c0df09a4       10     4         obj/ui_flow_stark_sign.o:(.rodata.ux_stark_limit_order_7_step_validate_step)
c0df09a4 c0df09a4       10     1                 ux_stark_limit_order_7_step_validate_step
c0df09b4 c0df09b4        8     4         obj/ui_flow_stark_sign.o:(.rodata.ux_stark_limit_order_7_step_validate)
c0df09b4 c0df09b4        8     1                 ux_stark_limit_order_7_step_validate
c0df09bc c0df09bc        c     4         obj/ui_flow_stark_sign.o:(.rodata.ux_stark_limit_order_7_step_val)
c0df09bc c0df09bc        c     1                 ux_stark_limit_order_7_step_val
c0df09c8 c0df09c8       10     4         obj/ui_flow_stark_sign.o:(.rodata.ux_stark_limit_order_7_step)
c0df09c8 c0df09c8       10     1                 ux_stark_limit_order_7_step
c0df09d8 c0df09d8       10     4         obj/ui_flow_stark_sign.o:(.rodata.ux_stark_limit_order_8_step_validate_step)
c0df09d8 c0df09d8       10     1                 ux_stark_limit_order_8_step_validate_step
c0df09e8 c0df09e8        8     4         obj/ui_flow_stark_sign.o:(.rodata.ux_stark_limit_order_8_step_validate)
c0df09e8 c0df09e8        8     1                 ux_stark_limit_order_8_step_validate
c0df09f0 c0df09f0        8     4         obj/ui_flow_stark_sign.o:(.rodata.ux_stark_limit_order_8_step_val)
c0df09f0 c0df09f0        8     1                 ux_stark_limit_order_8_step_val
c0df09f8 c0df09f8       10     4         obj/ui_flow_stark_sign.o:(.rodata.ux_stark_limit_order_8_step)
c0df09f8 c0df09f8       10     1                 ux_stark_limit_order_8_step
c0df0a08 c0df0a08       24     4         obj/ui_flow_stark_sign.o:(.rodata.ux_stark_limit_order_flow)
c0df0a08 c0df0a08       24     1                 ux_stark_limit_order_flow
c0df0a2c c0df0a2c        c     4         obj/ui_flow_stark_sign.o:(.rodata.ux_stark_transfer_1_step_val)
c0df0a2c c0df0a2c        c     1                 ux_stark_transfer_1_step_val
c0df0a38 c0df0a38       10     4         obj/ui_flow_stark_sign.o:(.rodata.ux_stark_transfer_1_step)
c0df0a38 c0df0a38       10     1                 ux_stark_transfer_1_step
c0df0a48 c0df0a48        8     4         obj/ui_flow_stark_sign.o:(.rodata.ux_stark_transfer_2_step_val)
c0df0a48 c0df0a48        8     1                 ux_stark_transfer_2_step_val
c0df0a50 c0df0a50       10     4         obj/ui_flow_stark_sign.o:(.rodata.ux_stark_transfer_2_step)
c0df0a50 c0df0a50       10     1                 ux_stark_transfer_2_step
c0df0a60 c0df0a60        8     4         obj/ui_flow_stark_sign.o:(.rodata.ux_stark_self_transfer_2_step_val)
c0df0a60 c0df0a60        8     1                 ux_stark_self_transfer_2_step_val
c0df0a68 c0df0a68       10     4         obj/ui_flow_stark_sign.o:(.rodata.ux_stark_self_transfer_2_step)
c0df0a68 c0df0a68       10     1                 ux_stark_self_transfer_2_step
c0df0a78 c0df0a78        8     4         obj/ui_flow_stark_sign.o:(.rodata.ux_stark_conditional_transfer_2_step_val)
c0df0a78 c0df0a78        8     1                 ux_stark_conditional_transfer_2_step_val
c0df0a80 c0df0a80       10     4         obj/ui_flow_stark_sign.o:(.rodata.ux_stark_conditional_transfer_2_step)
c0df0a80 c0df0a80       10     1                 ux_stark_conditional_transfer_2_step
c0df0a90 c0df0a90        8     4         obj/ui_flow_stark_sign.o:(.rodata.ux_stark_self_conditional_transfer_2_step_val)
c0df0a90 c0df0a90        8     1                 ux_stark_self_conditional_transfer_2_step_val
c0df0a98 c0df0a98       10     4         obj/ui_flow_stark_sign.o:(.rodata.ux_stark_self_conditional_transfer_2_step)
c0df0a98 c0df0a98       10     1                 ux_stark_self_conditional_transfer_2_step
c0df0aa8 c0df0aa8        8     4         obj/ui_flow_stark_sign.o:(.rodata.ux_stark_transfer_3_step_val)
c0df0aa8 c0df0aa8        8     1                 ux_stark_transfer_3_step_val
c0df0ab0 c0df0ab0       10     4         obj/ui_flow_stark_sign.o:(.rodata.ux_stark_transfer_3_step)
c0df0ab0 c0df0ab0       10     1                 ux_stark_transfer_3_step
c0df0ac0 c0df0ac0        8     4         obj/ui_flow_stark_sign.o:(.rodata.ux_stark_transfer_4_step_val)
c0df0ac0 c0df0ac0        8     1                 ux_stark_transfer_4_step_val
c0df0ac8 c0df0ac8       10     4         obj/ui_flow_stark_sign.o:(.rodata.ux_stark_transfer_4_step)
c0df0ac8 c0df0ac8       10     1                 ux_stark_transfer_4_step
c0df0ad8 c0df0ad8        8     4         obj/ui_flow_stark_sign.o:(.rodata.ux_stark_transfer_5_step_val)
c0df0ad8 c0df0ad8        8     1                 ux_stark_transfer_5_step_val
c0df0ae0 c0df0ae0       10     4         obj/ui_flow_stark_sign.o:(.rodata.ux_stark_transfer_5_step)
c0df0ae0 c0df0ae0       10     1                 ux_stark_transfer_5_step
c0df0af0 c0df0af0       10     4         obj/ui_flow_stark_sign.o:(.rodata.ux_stark_transfer_6_step_validate_step)
c0df0af0 c0df0af0       10     1                 ux_stark_transfer_6_step_validate_step
c0df0b00 c0df0b00        8     4         obj/ui_flow_stark_sign.o:(.rodata.ux_stark_transfer_6_step_validate)
c0df0b00 c0df0b00        8     1                 ux_stark_transfer_6_step_validate
c0df0b08 c0df0b08        c     4         obj/ui_flow_stark_sign.o:(.rodata.ux_stark_transfer_6_step_val)
c0df0b08 c0df0b08        c     1                 ux_stark_transfer_6_step_val
c0df0b14 c0df0b14       10     4         obj/ui_flow_stark_sign.o:(.rodata.ux_stark_transfer_6_step)
c0df0b14 c0df0b14       10     1                 ux_stark_transfer_6_step
c0df0b24 c0df0b24       10     4         obj/ui_flow_stark_sign.o:(.rodata.ux_stark_transfer_7_step_validate_step)
c0df0b24 c0df0b24       10     1                 ux_stark_transfer_7_step_validate_step
c0df0b34 c0df0b34        8     4         obj/ui_flow_stark_sign.o:(.rodata.ux_stark_transfer_7_step_validate)
c0df0b34 c0df0b34        8     1                 ux_stark_transfer_7_step_validate
c0df0b3c c0df0b3c        8     4         obj/ui_flow_stark_sign.o:(.rodata.ux_stark_transfer_7_step_val)
c0df0b3c c0df0b3c        8     1                 ux_stark_transfer_7_step_val
c0df0b44 c0df0b44       10     4         obj/ui_flow_stark_sign.o:(.rodata.ux_stark_transfer_7_step)
c0df0b44 c0df0b44       10     1                 ux_stark_transfer_7_step
c0df0b54 c0df0b54        8     4         obj/ui_flow_stark_sign.o:(.rodata.ux_stark_conditional_transfer_4_step_val)
c0df0b54 c0df0b54        8     1                 ux_stark_conditional_transfer_4_step_val
c0df0b5c c0df0b5c       10     4         obj/ui_flow_stark_sign.o:(.rodata.ux_stark_conditional_transfer_4_step)
c0df0b5c c0df0b5c       10     1                 ux_stark_conditional_transfer_4_step
c0df0b6c c0df0b6c        8     4         obj/ui_flow_stark_sign.o:(.rodata.ux_stark_conditional_transfer_8_step_val)
c0df0b6c c0df0b6c        8     1                 ux_stark_conditional_transfer_8_step_val
c0df0b74 c0df0b74       10     4         obj/ui_flow_stark_sign.o:(.rodata.ux_stark_conditional_transfer_8_step)
c0df0b74 c0df0b74       10     1                 ux_stark_conditional_transfer_8_step
c0df0b84 c0df0b84        8     4         obj/ui_flow_stark_sign.o:(.rodata.ux_stark_conditional_transfer_9_step_val)
c0df0b84 c0df0b84        8     1                 ux_stark_conditional_transfer_9_step_val
c0df0b8c c0df0b8c       10     4         obj/ui_flow_stark_sign.o:(.rodata.ux_stark_conditional_transfer_9_step)
c0df0b8c c0df0b8c       10     1                 ux_stark_conditional_transfer_9_step
c0df0b9c c0df0b9c       20     4         obj/ui_flow_stark_sign.o:(.rodata.ux_stark_transfer_flow)
c0df0b9c c0df0b9c       20     1                 ux_stark_transfer_flow
c0df0bbc c0df0bbc       1c     4         obj/ui_flow_stark_sign.o:(.rodata.ux_stark_self_transfer_flow)
c0df0bbc c0df0bbc       1c     1                 ux_stark_self_transfer_flow
c0df0bd8 c0df0bd8       28     4         obj/ui_flow_stark_sign.o:(.rodata.ux_stark_transfer_conditional_flow)
c0df0bd8 c0df0bd8       28     1                 ux_stark_transfer_conditional_flow
c0df0c00 c0df0c00       24     4         obj/ui_flow_stark_sign.o:(.rodata.ux_stark_self_transfer_conditional_flow)
c0df0c00 c0df0c00       24     1                 ux_stark_self_transfer_conditional_flow
c0df0c24 c0df0c24        c     4         obj/ui_flow_stark_unsafe_sign.o:(.rodata.ux_stark_unsafe_sign_1_step_val)
c0df0c24 c0df0c24        c     1                 ux_stark_unsafe_sign_1_step_val
c0df0c30 c0df0c30       10     4         obj/ui_flow_stark_unsafe_sign.o:(.rodata.ux_stark_unsafe_sign_1_step)
c0df0c30 c0df0c30       10     1                 ux_stark_unsafe_sign_1_step
c0df0c40 c0df0c40        8     4         obj/ui_flow_stark_unsafe_sign.o:(.rodata.ux_stark_unsafe_sign_2_step_val)
c0df0c40 c0df0c40        8     1                 ux_stark_unsafe_sign_2_step_val
c0df0c48 c0df0c48       10     4         obj/ui_flow_stark_unsafe_sign.o:(.rodata.ux_stark_unsafe_sign_2_step)
c0df0c48 c0df0c48       10     1                 ux_stark_unsafe_sign_2_step
c0df0c58 c0df0c58        8     4         obj/ui_flow_stark_unsafe_sign.o:(.rodata.ux_stark_unsafe_sign_3_step_val)
c0df0c58 c0df0c58        8     1                 ux_stark_unsafe_sign_3_step_val
c0df0c60 c0df0c60       10     4         obj/ui_flow_stark_unsafe_sign.o:(.rodata.ux_stark_unsafe_sign_3_step)
c0df0c60 c0df0c60       10     1                 ux_stark_unsafe_sign_3_step
c0df0c70 c0df0c70       10     4         obj/ui_flow_stark_unsafe_sign.o:(.rodata.ux_stark_unsafe_sign_4_step_validate_step)
c0df0c70 c0df0c70       10     1                 ux_stark_unsafe_sign_4_step_validate_step
c0df0c80 c0df0c80        8     4         obj/ui_flow_stark_unsafe_sign.o:(.rodata.ux_stark_unsafe_sign_4_step_validate)
c0df0c80 c0df0c80        8     1                 ux_stark_unsafe_sign_4_step_validate
c0df0c88 c0df0c88        c     4         obj/ui_flow_stark_unsafe_sign.o:(.rodata.ux_stark_unsafe_sign_4_step_val)
c0df0c88 c0df0c88        c     1                 ux_stark_unsafe_sign_4_step_val
c0df0c94 c0df0c94       10     4         obj/ui_flow_stark_unsafe_sign.o:(.rodata.ux_stark_unsafe_sign_4_step)
c0df0c94 c0df0c94       10     1                 ux_stark_unsafe_sign_4_step
c0df0ca4 c0df0ca4       10     4         obj/ui_flow_stark_unsafe_sign.o:(.rodata.ux_stark_unsafe_sign_5_step_validate_step)
c0df0ca4 c0df0ca4       10     1                 ux_stark_unsafe_sign_5_step_validate_step
c0df0cb4 c0df0cb4        8     4         obj/ui_flow_stark_unsafe_sign.o:(.rodata.ux_stark_unsafe_sign_5_step_validate)
c0df0cb4 c0df0cb4        8     1                 ux_stark_unsafe_sign_5_step_validate
c0df0cbc c0df0cbc        8     4         obj/ui_flow_stark_unsafe_sign.o:(.rodata.ux_stark_unsafe_sign_5_step_val)
c0df0cbc c0df0cbc        8     1                 ux_stark_unsafe_sign_5_step_val
c0df0cc4 c0df0cc4       10     4         obj/ui_flow_stark_unsafe_sign.o:(.rodata.ux_stark_unsafe_sign_5_step)
c0df0cc4 c0df0cc4       10     1                 ux_stark_unsafe_sign_5_step
c0df0cd4 c0df0cd4       18     4         obj/ui_flow_stark_unsafe_sign.o:(.rodata.ux_stark_unsafe_sign_flow)
c0df0cd4 c0df0cd4       18     1                 ux_stark_unsafe_sign_flow
c0df0cec c0df0cec        9     4         obj/usbd_impl.o:(.rodata.USBD_HID_Desc_fido)
c0df0cec c0df0cec        9     1                 USBD_HID_Desc_fido
c0df0cf8 c0df0cf8        9     4         obj/usbd_impl.o:(.rodata.USBD_HID_Desc)
c0df0cf8 c0df0cf8        9     1                 USBD_HID_Desc
c0df0d01 c0df0d01       22     1         obj/usbd_impl.o:(.rodata.HID_ReportDesc_fido)
c0df0d01 c0df0d01       22     1                 HID_ReportDesc_fido
c0df0d23 c0df0d23       22     1         obj/usbd_impl.o:(.rodata.HID_ReportDesc)
c0df0d23 c0df0d23       22     1                 HID_ReportDesc
c0df0d45 c0df0d45       39     1         obj/usbd_impl.o:(.rodata.C_usb_bos)
c0df0d45 c0df0d45       39     1                 C_usb_bos
c0df0d80 c0df0d80       20     4         obj/usbd_impl.o:(.rodata.HID_Desc)
c0df0d80 c0df0d80       20     1                 HID_Desc
c0df0da0 c0df0da0       12     1         obj/usbd_impl.o:(.rodata.C_winusb_string_descriptor)
c0df0da0 c0df0da0       12     1                 C_winusb_string_descriptor
c0df0db2 c0df0db2       92     1         obj/usbd_impl.o:(.rodata.C_winusb_guid)
c0df0db2 c0df0db2       92     1                 C_winusb_guid
c0df0e44 c0df0e44       b2     1         obj/usbd_impl.o:(.rodata.C_winusb_request_descriptor)
c0df0e44 c0df0e44       b2     1                 C_winusb_request_descriptor
c0df0ef8 c0df0ef8       38     4         obj/usbd_impl.o:(.rodata.USBD_HID)
c0df0ef8 c0df0ef8       38     1                 USBD_HID
c0df0f30 c0df0f30       38     4         obj/usbd_impl.o:(.rodata.USBD_U2F)
c0df0f30 c0df0f30       38     1                 USBD_U2F
c0df0f68 c0df0f68       38     4         obj/usbd_impl.o:(.rodata.USBD_WEBUSB)
c0df0f68 c0df0f68       38     1                 USBD_WEBUSB
c0df0fa0 c0df0fa0       12     1         obj/usbd_impl.o:(.rodata.USBD_DeviceDesc)
c0df0fa0 c0df0fa0       12     1                 USBD_DeviceDesc
c0df0fb2 c0df0fb2        4     1         obj/usbd_impl.o:(.rodata.USBD_LangIDDesc)
c0df0fb2 c0df0fb2        4     1                 USBD_LangIDDesc
c0df0fb6 c0df0fb6        e     1         obj/usbd_impl.o:(.rodata.USBD_MANUFACTURER_STRING)
c0df0fb6 c0df0fb6        e     1                 USBD_MANUFACTURER_STRING
c0df0fc4 c0df0fc4        e     1         obj/usbd_impl.o:(.rodata.USBD_PRODUCT_FS_STRING)
c0df0fc4 c0df0fc4        e     1                 USBD_PRODUCT_FS_STRING
c0df0fd2 c0df0fd2        a     1         obj/usbd_impl.o:(.rodata.USB_SERIAL_STRING)
c0df0fd2 c0df0fd2        a     1                 USB_SERIAL_STRING
c0df0fdc c0df0fdc       28     1         obj/usbd_impl.o:(.rodata.C_winusb_wcid)
c0df0fdc c0df0fdc       28     1                 C_winusb_wcid
c0df1004 c0df1004       60     4         obj/usbd_impl.o:(.rodata.USBD_CfgDesc)
c0df1004 c0df1004       60     1                 USBD_CfgDesc
c0df1064 c0df1064        a     4         obj/usbd_impl.o:(.rodata.USBD_DeviceQualifierDesc)
c0df1064 c0df1064        a     1                 USBD_DeviceQualifierDesc
c0df1070 c0df1070       a0     4         obj/ux_layout_bb.o:(.rodata.ux_layout_bb_elements)
c0df1070 c0df1070       a0     1                 ux_layout_bb_elements
c0df1110 c0df1110       e0     4         obj/ux_layout_bnnn.o:(.rodata.ux_layout_bnnn_elements)
c0df1110 c0df1110       e0     1                 ux_layout_bnnn_elements
c0df11f0 c0df11f0       e0     4         obj/ux_layout_paging.o:(.rodata.ux_layout_paging_elements)
c0df11f0 c0df11f0       e0     1                 ux_layout_paging_elements
c0df12d0 c0df12d0       a0     4         obj/ux_layout_pb.o:(.rodata.ux_layout_pb_elements)
c0df12d0 c0df12d0       a0     1                 ux_layout_pb_elements
c0df1370 c0df1370       c0     4         obj/ux_layout_pbb.o:(.rodata.ux_layout_pbb_elements)
c0df1370 c0df1370       c0     1                 ux_layout_pbb_elements
c0df1430 c0df1430      260     8         obj/network.o:(.rodata.NETWORK_MAPPING)
c0df1430 c0df1430      260     1                 NETWORK_MAPPING
c0df1690 c0df1690        5     1         obj/stark_utils.o:(.rodata.NFT_ASSET_ID_PREFIX)
c0df1690 c0df1690        5     1                 NFT_ASSET_ID_PREFIX
c0df1695 c0df1695        3     1         . = ALIGN ( 4 )
c0df1698 c0df1698        0     1         _etext = .
c0df1698 c0df1698       68     1         . = ALIGN ( PAGE_SIZE )
c0df1700 c0df1700        0     1         _nvram_data = .
c0df1700 c0df1700        5     1         obj/main.o:(.rodata.N_storage_real)
c0df1700 c0df1700        5     1                 N_storage_real
c0df1705 c0df1705       fb     1         . = ALIGN ( PAGE_SIZE )
c0df1800 c0df1800        0     1         _envram_data = .
c0df1800 c0df1800        0     1         _install_parameters = .
c0df1800 c0df1800        0     1         _nvram_end = .
d0000000 d0000000        0     1 .data
d0000000 d0000000        0     1         . = ALIGN ( 4 )
d0000000 d0000000        0     1         _data = .
d0000000 d0000000        0     1         _edata = .
da7a0000 da7a0000     12a4     8 .bss
da7a0000 da7a0000        0     1         _bss = .
da7a0000 da7a0000        0     1         __stack_chk_guard = .
da7a0000 da7a0000        4     1         . += 4
da7a0004 da7a0004       54     4         obj/ledger_ble.o:(.bss.ledger_ble_data)
da7a0004 da7a0004       54     1                 ledger_ble_data
da7a0058 da7a0058       c0     4         obj/ledger_ble.o:(.bss.ledger_protocol_data)
da7a0058 da7a0058       c0     1                 ledger_protocol_data
da7a0118 da7a0118        4     4         obj/ledger_protocol.o:(.bss.ledger_protocol)
da7a0118 da7a0118        4     1                 ledger_protocol
da7a011c da7a011c        1     1         obj/main.o:(.bss.appState)
da7a011c da7a011c        1     1                 appState
da7a011d da7a011d        1     1         obj/main.o:(.bss.called_from_swap)
da7a011d da7a011d        1     1                 called_from_swap
da7a011e da7a011e        1     1         obj/main.o:(.bss.pluginType)
da7a011e da7a011e        1     1                 pluginType
da7a011f da7a011f        1     1         obj/main.o:(.bss.quantumSet)
da7a011f da7a011f        1     1                 quantumSet
da7a0120 da7a0120        4     4         obj/main.o:(.bss.eth2WithdrawalIndex)
da7a0120 da7a0120        4     1                 eth2WithdrawalIndex
da7a0124 da7a0124      108     4         obj/main.o:(.bss.tmpCtx)
da7a0124 da7a0124      108     1                 tmpCtx
da7a022c da7a022c       40     4         obj/main.o:(.bss.txContext)
da7a022c da7a022c       40     1                 txContext
da7a026c da7a026c       c4     4         obj/main.o:(.bss.tmpContent)
da7a026c da7a026c       c4     1                 tmpContent
da7a0330 da7a0330      114     4         obj/main.o:(.bss.G_ux)
da7a0330 da7a0330      114     1                 G_ux
da7a0444 da7a0444      12c     1         obj/main.o:(.bss.G_io_seproxyhal_spi_buffer)
da7a0444 da7a0444      12c     1                 G_io_seproxyhal_spi_buffer
da7a0570 da7a0570       20     4         obj/main.o:(.bss.G_ux_params)
da7a0570 da7a0570       20     1                 G_ux_params
da7a0590 da7a0590        4     4         obj/main.o:(.bss.chainConfig)
da7a0590 da7a0590        4     1                 chainConfig
da7a0594 da7a0594      126     1         obj/main.o:(.bss.dataContext)
da7a0594 da7a0594      126     1                 dataContext
da7a06ba da7a06ba      128     1         obj/main.o:(.bss.strings)
da7a06ba da7a06ba      128     1                 strings
da7a07e8 da7a07e8      1a8     8         obj/main.o:(.bss.global_sha3)
da7a07e8 da7a07e8      1a8     1                 global_sha3
da7a0990 da7a0990      151     1         obj/os.o:(.bss.G_io_apdu_buffer)
da7a0990 da7a0990      151     1                 G_io_apdu_buffer
da7a0ae4 da7a0ae4       24     4         obj/os_io_seproxyhal.o:(.bss.G_io_app)
da7a0ae4 da7a0ae4       24     1                 G_io_app
da7a0b08 da7a0b08        8     4         obj/os_io_seproxyhal.o:(.bss.G_ux_os)
da7a0b08 da7a0b08        8     1                 G_ux_os
da7a0b10 da7a0b10       44     4         obj/os_io_seproxyhal.o:(.bss.G_io_u2f)
da7a0b10 da7a0b10       44     1                 G_io_u2f
da7a0b54 da7a0b54       40     1         obj/os_io_seproxyhal.o:(.bss.G_io_usb_ep_buffer)
da7a0b54 da7a0b54       40     1                 G_io_usb_ep_buffer
da7a0b94 da7a0b94        4     4         obj/os_io_task.o:(.bss.G_io_asynch_ux_callback)
da7a0b94 da7a0b94        4     1                 G_io_asynch_ux_callback
da7a0b98 da7a0b98        4     4         obj/os_io_usb.o:(.bss.G_io_usb_hid_sequence_number)
da7a0b98 da7a0b98        4     1                 G_io_usb_hid_sequence_number
da7a0b9c da7a0b9c        4     4         obj/os_io_usb.o:(.bss.G_io_usb_hid_total_length)
da7a0b9c da7a0b9c        4     1                 G_io_usb_hid_total_length
da7a0ba0 da7a0ba0        4     4         obj/os_io_usb.o:(.bss.G_io_usb_hid_remaining_length)
da7a0ba0 da7a0ba0        4     1                 G_io_usb_hid_remaining_length
da7a0ba4 da7a0ba4        4     4         obj/os_io_usb.o:(.bss.G_io_usb_hid_current_buffer)
da7a0ba4 da7a0ba4        4     1                 G_io_usb_hid_current_buffer
da7a0ba8 da7a0ba8        4     4         obj/os_io_usb.o:(.bss.G_io_usb_hid_channel)
da7a0ba8 da7a0ba8        4     1                 G_io_usb_hid_channel
da7a0bac da7a0bac       3c     4         obj/ui_flow_signTx.o:(.bss.ux_approval_tx_flow)
da7a0bac da7a0bac       3c     1                 ux_approval_tx_flow
da7a0be8 da7a0be8        4     4         obj/usbd_conf.o:(.bss.ep_in_stall)
da7a0be8 da7a0be8        4     1                 ep_in_stall
da7a0bec da7a0bec        4     4         obj/usbd_conf.o:(.bss.ep_out_stall)
da7a0bec da7a0bec        4     1                 ep_out_stall
da7a0bf0 da7a0bf0       d4     4         obj/usbd_core.o:(.bss.USBD_Device)
da7a0bf0 da7a0bf0       d4     1                 USBD_Device
da7a0cc4 da7a0cc4        0     1         _ebss = .
da7a0cc4 da7a0cc4        0     1         . = ALIGN ( 4 )
da7a0cc4 da7a0cc4        0     1         app_stack_canary = .
da7a0cc4 da7a0cc4        4     1         . += 4
da7a0cc8 da7a0cc8        0     1         _stack_validation = .
da7a0cc8 da7a0cc8      5dc     1         . = _stack_validation + STACK_SIZE
da7a12a4 da7a12a4        0     1         _stack = ABSOLUTE ( END_STACK ) - STACK_SIZE
da7a12a4 da7a12a4        0     1         _estack = ABSOLUTE ( END_STACK )
       0        0       33     1 .comment
       0        0       33     1         <internal>:(.comment)
       0        0      408     8 .debug_aranges
       0        0      3a8     8         obj/cx_stubs.o:(.debug_aranges)
     3a8      3a8       20     8         obj/stack_protector_init.o:(.debug_aranges)
     3c8      3c8       20     8         obj/svc_call.o:(.debug_aranges)
     3e8      3e8       20     8         obj/svc_cx_call.o:(.debug_aranges)
       0        0    36104     1 .debug_info
       0        0      a4c     1         obj/bagl.o:(.debug_info)
     a4c      a4c      5fe     1         obj/bagl_fonts.o:(.debug_info)
    104a     104a     2ac1     1         obj/ble_gap_aci.o:(.debug_info)
    3b0b     3b0b     2ecb     1         obj/ble_gatt_aci.o:(.debug_info)
    69d6     69d6      c56     1         obj/ble_hal_aci.o:(.debug_info)
    762c     762c     2fb6     1         obj/ble_hci_le.o:(.debug_info)
    a5e2     a5e2      a08     1         obj/ble_l2cap_aci.o:(.debug_info)
    afea     afea      145     1         obj/cmd_getAppConfiguration.o:(.debug_info)
    b12f     b12f      689     1         obj/cmd_getEth2PublicKey.o:(.debug_info)
    b7b8     b7b8      42d     1         obj/cmd_getPublicKey.o:(.debug_info)
    bbe5     bbe5      476     1         obj/cmd_performPrivacyOperation.o:(.debug_info)
    c05b     c05b      5c5     1         obj/cmd_provideNFTInfo.o:(.debug_info)
    c620     c620      4e5     1         obj/cmd_provideTokenInfo.o:(.debug_info)
    cb05     cb05      13d     1         obj/cmd_setEth2WithdrawalIndex.o:(.debug_info)
    cc42     cc42      552     1         obj/cmd_setExternalPlugin.o:(.debug_info)
    d194     d194      767     1         obj/cmd_setPlugin.o:(.debug_info)
    d8fb     d8fb      7d1     1         obj/cmd_signMessage.o:(.debug_info)
    e0cc     e0cc      174     1         obj/cmd_signMessage712.o:(.debug_info)
    e240     e240      624     1         obj/cmd_signTx.o:(.debug_info)
    e864     e864      432     1         obj/cmd_stark_getPublicKey.o:(.debug_info)
    ec96     ec96      249     1         obj/cmd_stark_provideQuantum.o:(.debug_info)
    eedf     eedf      8eb     1         obj/cmd_stark_sign.o:(.debug_info)
    f7ca     f7ca      44f     1         obj/cmd_stark_unsafe_sign.o:(.debug_info)
    fc19     fc19      b89     1         obj/compound_plugin.o:(.debug_info)
   107a2    107a2       22     1         obj/cx_stubs.o:(.debug_info)
   107c4    107c4      b4c     1         obj/erc1155_plugin.o:(.debug_info)
   11310    11310      80b     1         obj/erc1155_provide_parameters.o:(.debug_info)
   11b1b    11b1b      883     1         obj/erc1155_ui.o:(.debug_info)
   1239e    1239e      c0b     1         obj/erc20_plugin.o:(.debug_info)
   12fa9    12fa9      a97     1         obj/erc721_plugin.o:(.debug_info)
   13a40    13a40      660     1         obj/erc721_provide_parameters.o:(.debug_info)
   140a0    140a0      77c     1         obj/erc721_ui.o:(.debug_info)
   1481c    1481c      a59     1         obj/eth2_plugin.o:(.debug_info)
   15275    15275      e0f     1         obj/ethUstream.o:(.debug_info)
   16084    16084      943     1         obj/ethUtils.o:(.debug_info)
   169c7    169c7      d63     1         obj/eth_plugin_handler.o:(.debug_info)
   1772a    1772a      42c     1         obj/eth_plugin_internal.o:(.debug_info)
   17b56    17b56       4b     1         obj/eth_plugin_ui.o:(.debug_info)
   17ba1    17ba1     10ee     1         obj/glyphs.o:(.debug_info)
   18c8f    18c8f      8aa     1         obj/handle_check_address.o:(.debug_info)
   19539    19539      2f2     1         obj/handle_get_printable_amount.o:(.debug_info)
   1982b    1982b      4af     1         obj/handle_swap_sign_transaction.o:(.debug_info)
   19cda    19cda     1039     1         obj/ledger_ble.o:(.debug_info)
   1ad13    1ad13      387     1         obj/ledger_protocol.o:(.debug_info)
   1b09a    1b09a       6a     1         obj/logic_getEth2PublicKey.o:(.debug_info)
   1b104    1b104       6a     1         obj/logic_getPublicKey.o:(.debug_info)
   1b16e    1b16e       91     1         obj/logic_performPrivacyOperation.o:(.debug_info)
   1b1ff    1b1ff     12ca     1         obj/logic_signTx.o:(.debug_info)
   1c4c9    1c4c9       6b     1         obj/logic_stark_getPublicKey.o:(.debug_info)
   1c534    1c534     2119     1         obj/main.o:(.debug_info)
   1e64d    1e64d      1ad     1         obj/network.o:(.debug_info)
   1e7fa    1e7fa      5fa     1         obj/os.o:(.debug_info)
   1edf4    1edf4     1025     1         obj/os_io_seproxyhal.o:(.debug_info)
   1fe19    1fe19       7e     1         obj/os_io_task.o:(.debug_info)
   1fe97    1fe97      2dc     1         obj/os_io_usb.o:(.debug_info)
   20173    20173      259     1         obj/os_printf.o:(.debug_info)
   203cc    203cc      10b     1         obj/osal.o:(.debug_info)
   204d7    204d7       90     1         obj/pic.o:(.debug_info)
   20567    20567      16b     1         obj/poorstream.o:(.debug_info)
   206d2    206d2       26     1         obj/stack_protector_init.o:(.debug_info)
   206f8    206f8      542     1         obj/stark_crypto.o:(.debug_info)
   20c3a    20c3a      c95     1         obj/stark_utils.o:(.debug_info)
   218cf    218cf     113e     1         obj/starkware_plugin.o:(.debug_info)
   22a0d    22a0d       26     1         obj/svc_call.o:(.debug_info)
   22a33    22a33       26     1         obj/svc_cx_call.o:(.debug_info)
   22a59    22a59     3543     1         obj/syscalls.o:(.debug_info)
   25f9c    25f9c      7ce     1         obj/u2f_impl.o:(.debug_info)
   2676a    2676a       cf     1         obj/u2f_io.o:(.debug_info)
   26839    26839      79b     1         obj/u2f_transport.o:(.debug_info)
   26fd4    26fd4      1eb     1         obj/ui_common_getEth2PublicKey.o:(.debug_info)
   271bf    271bf      212     1         obj/ui_common_getPublicKey.o:(.debug_info)
   273d1    273d1      212     1         obj/ui_common_performPrivacyOperation.o:(.debug_info)
   275e3    275e3      59d     1         obj/ui_common_signMessage.o:(.debug_info)
   27b80    27b80      8b3     1         obj/ui_common_signMessage712.o:(.debug_info)
   28433    28433      667     1         obj/ui_common_signTx.o:(.debug_info)
   28a9a    28a9a      1eb     1         obj/ui_common_stark_getPublicKey.o:(.debug_info)
   28c85    28c85      23f     1         obj/ui_common_stark_sign.o:(.debug_info)
   28ec4    28ec4      578     1         obj/ui_common_stark_unsafe_sign.o:(.debug_info)
   2943c    2943c      7e9     1         obj/ui_flow.o:(.debug_info)
   29c25    29c25      3e1     1         obj/ui_flow_erc20_approval.o:(.debug_info)
   2a006    2a006      367     1         obj/ui_flow_getEth2PublicKey.o:(.debug_info)
   2a36d    2a36d      332     1         obj/ui_flow_getPublicKey.o:(.debug_info)
   2a69f    2a69f      38c     1         obj/ui_flow_performPrivacyOperation.o:(.debug_info)
   2aa2b    2aa2b      340     1         obj/ui_flow_signMessage.o:(.debug_info)
   2ad6b    2ad6b      3ce     1         obj/ui_flow_signMessage712.o:(.debug_info)
   2b139    2b139      893     1         obj/ui_flow_signTx.o:(.debug_info)
   2b9cc    2b9cc      332     1         obj/ui_flow_stark_getPublicKey.o:(.debug_info)
   2bcfe    2bcfe      75b     1         obj/ui_flow_stark_sign.o:(.debug_info)
   2c459    2c459      403     1         obj/ui_flow_stark_unsafe_sign.o:(.debug_info)
   2c85c    2c85c      6f0     1         obj/ui_plugin.o:(.debug_info)
   2cf4c    2cf4c     19ce     1         obj/uint256.o:(.debug_info)
   2e91a    2e91a      980     1         obj/usbd_conf.o:(.debug_info)
   2f29a    2f29a      b47     1         obj/usbd_core.o:(.debug_info)
   2fde1    2fde1      aab     1         obj/usbd_ctlreq.o:(.debug_info)
   3088c    3088c      68f     1         obj/usbd_hid.o:(.debug_info)
   30f1b    30f1b      da3     1         obj/usbd_impl.o:(.debug_info)
   31cbe    31cbe      72f     1         obj/usbd_ioreq.o:(.debug_info)
   323ed    323ed      519     1         obj/utils.o:(.debug_info)
   32906    32906      3bf     1         obj/ux_flow_engine.o:(.debug_info)
   32cc5    32cc5      206     1         obj/ux_layout_bb.o:(.debug_info)
   32ecb    32ecb      263     1         obj/ux_layout_bn.o:(.debug_info)
   3312e    3312e      1e3     1         obj/ux_layout_bnn.o:(.debug_info)
   33311    33311      1e3     1         obj/ux_layout_bnnn.o:(.debug_info)
   334f4    334f4      263     1         obj/ux_layout_nn.o:(.debug_info)
   33757    33757      257     1         obj/ux_layout_nnbnn.o:(.debug_info)
   339ae    339ae      1e3     1         obj/ux_layout_nnn.o:(.debug_info)
   33b91    33b91      1e3     1         obj/ux_layout_nnnn.o:(.debug_info)
   33d74    33d74      8e4     1         obj/ux_layout_paging.o:(.debug_info)
   34658    34658      244     1         obj/ux_layout_paging_compute.o:(.debug_info)
   3489c    3489c      2d0     1         obj/ux_layout_pb.o:(.debug_info)
   34b6c    34b6c      300     1         obj/ux_layout_pbb.o:(.debug_info)
   34e6c    34e6c      263     1         obj/ux_layout_pbn.o:(.debug_info)
   350cf    350cf      2d0     1         obj/ux_layout_pn.o:(.debug_info)
   3539f    3539f      263     1         obj/ux_layout_pnn.o:(.debug_info)
   35602    35602      26d     1         obj/ux_layout_utils.o:(.debug_info)
   3586f    3586f      1d4     1         obj/ux_legacy.o:(.debug_info)
   35a43    35a43      21a     1         obj/ux_menulist.o:(.debug_info)
   35c5d    35c5d      4a7     1         obj/ux_stack.o:(.debug_info)
       0        0     8a3f     1 .debug_abbrev
       0        0      188     1         obj/bagl.o:(.debug_abbrev)
     188      188       9a     1         obj/bagl_fonts.o:(.debug_abbrev)
     222      222      16b     1         obj/ble_gap_aci.o:(.debug_abbrev)
     38d      38d      170     1         obj/ble_gatt_aci.o:(.debug_abbrev)
     4fd      4fd      146     1         obj/ble_hal_aci.o:(.debug_abbrev)
     643      643      15e     1         obj/ble_hci_le.o:(.debug_abbrev)
     7a1      7a1      153     1         obj/ble_l2cap_aci.o:(.debug_abbrev)
     8f4      8f4       7f     1         obj/cmd_getAppConfiguration.o:(.debug_abbrev)
     973      973      19b     1         obj/cmd_getEth2PublicKey.o:(.debug_abbrev)
     b0e      b0e      157     1         obj/cmd_getPublicKey.o:(.debug_abbrev)
     c65      c65      192     1         obj/cmd_performPrivacyOperation.o:(.debug_abbrev)
     df7      df7      19f     1         obj/cmd_provideNFTInfo.o:(.debug_abbrev)
     f96      f96      199     1         obj/cmd_provideTokenInfo.o:(.debug_abbrev)
    112f     112f       82     1         obj/cmd_setEth2WithdrawalIndex.o:(.debug_abbrev)
    11b1     11b1      1a3     1         obj/cmd_setExternalPlugin.o:(.debug_abbrev)
    1354     1354      1e0     1         obj/cmd_setPlugin.o:(.debug_abbrev)
    1534     1534      1fe     1         obj/cmd_signMessage.o:(.debug_abbrev)
    1732     1732       c0     1         obj/cmd_signMessage712.o:(.debug_abbrev)
    17f2     17f2      13b     1         obj/cmd_signTx.o:(.debug_abbrev)
    192d     192d      157     1         obj/cmd_stark_getPublicKey.o:(.debug_abbrev)
    1a84     1a84      118     1         obj/cmd_stark_provideQuantum.o:(.debug_abbrev)
    1b9c     1b9c      1ba     1         obj/cmd_stark_sign.o:(.debug_abbrev)
    1d56     1d56      171     1         obj/cmd_stark_unsafe_sign.o:(.debug_abbrev)
    1ec7     1ec7      1a9     1         obj/compound_plugin.o:(.debug_abbrev)
    2070     2070       12     1         obj/cx_stubs.o:(.debug_abbrev)
    2082     2082      1a1     1         obj/erc1155_plugin.o:(.debug_abbrev)
    2223     2223      173     1         obj/erc1155_provide_parameters.o:(.debug_abbrev)
    2396     2396      14b     1         obj/erc1155_ui.o:(.debug_abbrev)
    24e1     24e1      1af     1         obj/erc20_plugin.o:(.debug_abbrev)
    2690     2690      1a1     1         obj/erc721_plugin.o:(.debug_abbrev)
    2831     2831      148     1         obj/erc721_provide_parameters.o:(.debug_abbrev)
    2979     2979      142     1         obj/erc721_ui.o:(.debug_abbrev)
    2abb     2abb      174     1         obj/eth2_plugin.o:(.debug_abbrev)
    2c2f     2c2f      289     1         obj/ethUstream.o:(.debug_abbrev)
    2eb8     2eb8      1ae     1         obj/ethUtils.o:(.debug_abbrev)
    3066     3066      1f6     1         obj/eth_plugin_handler.o:(.debug_abbrev)
    325c     325c       e2     1         obj/eth_plugin_internal.o:(.debug_abbrev)
    333e     333e       3d     1         obj/eth_plugin_ui.o:(.debug_abbrev)
    337b     337b       9c     1         obj/glyphs.o:(.debug_abbrev)
    3417     3417      19d     1         obj/handle_check_address.o:(.debug_abbrev)
    35b4     35b4       e3     1         obj/handle_get_printable_amount.o:(.debug_abbrev)
    3697     3697      104     1         obj/handle_swap_sign_transaction.o:(.debug_abbrev)
    379b     379b      26e     1         obj/ledger_ble.o:(.debug_abbrev)
    3a09     3a09      133     1         obj/ledger_protocol.o:(.debug_abbrev)
    3b3c     3b3c       50     1         obj/logic_getEth2PublicKey.o:(.debug_abbrev)
    3b8c     3b8c       50     1         obj/logic_getPublicKey.o:(.debug_abbrev)
    3bdc     3bdc       59     1         obj/logic_performPrivacyOperation.o:(.debug_abbrev)
    3c35     3c35      270     1         obj/logic_signTx.o:(.debug_abbrev)
    3ea5     3ea5       52     1         obj/logic_stark_getPublicKey.o:(.debug_abbrev)
    3ef7     3ef7      33a     1         obj/main.o:(.debug_abbrev)
    4231     4231       c3     1         obj/network.o:(.debug_abbrev)
    42f4     42f4      1aa     1         obj/os.o:(.debug_abbrev)
    449e     449e      2e6     1         obj/os_io_seproxyhal.o:(.debug_abbrev)
    4784     4784       81     1         obj/os_io_task.o:(.debug_abbrev)
    4805     4805      14c     1         obj/os_io_usb.o:(.debug_abbrev)
    4951     4951       fe     1         obj/os_printf.o:(.debug_abbrev)
    4a4f     4a4f       56     1         obj/osal.o:(.debug_abbrev)
    4aa5     4aa5       77     1         obj/pic.o:(.debug_abbrev)
    4b1c     4b1c       78     1         obj/poorstream.o:(.debug_abbrev)
    4b94     4b94       14     1         obj/stack_protector_init.o:(.debug_abbrev)
    4ba8     4ba8      179     1         obj/stark_crypto.o:(.debug_abbrev)
    4d21     4d21      1f3     1         obj/stark_utils.o:(.debug_abbrev)
    4f14     4f14      266     1         obj/starkware_plugin.o:(.debug_abbrev)
    517a     517a       14     1         obj/svc_call.o:(.debug_abbrev)
    518e     518e       14     1         obj/svc_cx_call.o:(.debug_abbrev)
    51a2     51a2      19d     1         obj/syscalls.o:(.debug_abbrev)
    533f     533f      1a1     1         obj/u2f_impl.o:(.debug_abbrev)
    54e0     54e0       6b     1         obj/u2f_io.o:(.debug_abbrev)
    554b     554b      202     1         obj/u2f_transport.o:(.debug_abbrev)
    574d     574d       ac     1         obj/ui_common_getEth2PublicKey.o:(.debug_abbrev)
    57f9     57f9       ac     1         obj/ui_common_getPublicKey.o:(.debug_abbrev)
    58a5     58a5       ac     1         obj/ui_common_performPrivacyOperation.o:(.debug_abbrev)
    5951     5951      185     1         obj/ui_common_signMessage.o:(.debug_abbrev)
    5ad6     5ad6      1c4     1         obj/ui_common_signMessage712.o:(.debug_abbrev)
    5c9a     5c9a      185     1         obj/ui_common_signTx.o:(.debug_abbrev)
    5e1f     5e1f       ac     1         obj/ui_common_stark_getPublicKey.o:(.debug_abbrev)
    5ecb     5ecb       d8     1         obj/ui_common_stark_sign.o:(.debug_abbrev)
    5fa3     5fa3      185     1         obj/ui_common_stark_unsafe_sign.o:(.debug_abbrev)
    6128     6128       e3     1         obj/ui_flow.o:(.debug_abbrev)
    620b     620b       b9     1         obj/ui_flow_erc20_approval.o:(.debug_abbrev)
    62c4     62c4       db     1         obj/ui_flow_getEth2PublicKey.o:(.debug_abbrev)
    639f     639f       b9     1         obj/ui_flow_getPublicKey.o:(.debug_abbrev)
    6458     6458       b9     1         obj/ui_flow_performPrivacyOperation.o:(.debug_abbrev)
    6511     6511       b9     1         obj/ui_flow_signMessage.o:(.debug_abbrev)
    65ca     65ca       db     1         obj/ui_flow_signMessage712.o:(.debug_abbrev)
    66a5     66a5       e3     1         obj/ui_flow_signTx.o:(.debug_abbrev)
    6788     6788       b9     1         obj/ui_flow_stark_getPublicKey.o:(.debug_abbrev)
    6841     6841       db     1         obj/ui_flow_stark_sign.o:(.debug_abbrev)
    691c     691c       db     1         obj/ui_flow_stark_unsafe_sign.o:(.debug_abbrev)
    69f7     69f7      114     1         obj/ui_plugin.o:(.debug_abbrev)
    6b0b     6b0b      267     1         obj/uint256.o:(.debug_abbrev)
    6d72     6d72      151     1         obj/usbd_conf.o:(.debug_abbrev)
    6ec3     6ec3      1e5     1         obj/usbd_core.o:(.debug_abbrev)
    70a8     70a8      1dd     1         obj/usbd_ctlreq.o:(.debug_abbrev)
    7285     7285      10b     1         obj/usbd_hid.o:(.debug_abbrev)
    7390     7390      180     1         obj/usbd_impl.o:(.debug_abbrev)
    7510     7510       ed     1         obj/usbd_ioreq.o:(.debug_abbrev)
    75fd     75fd      110     1         obj/utils.o:(.debug_abbrev)
    770d     770d      169     1         obj/ux_flow_engine.o:(.debug_abbrev)
    7876     7876       c9     1         obj/ux_layout_bb.o:(.debug_abbrev)
    793f     793f       cc     1         obj/ux_layout_bn.o:(.debug_abbrev)
    7a0b     7a0b       c9     1         obj/ux_layout_bnn.o:(.debug_abbrev)
    7ad4     7ad4       c9     1         obj/ux_layout_bnnn.o:(.debug_abbrev)
    7b9d     7b9d       cc     1         obj/ux_layout_nn.o:(.debug_abbrev)
    7c69     7c69       ef     1         obj/ux_layout_nnbnn.o:(.debug_abbrev)
    7d58     7d58       c9     1         obj/ux_layout_nnn.o:(.debug_abbrev)
    7e21     7e21       c9     1         obj/ux_layout_nnnn.o:(.debug_abbrev)
    7eea     7eea      21b     1         obj/ux_layout_paging.o:(.debug_abbrev)
    8105     8105       ea     1         obj/ux_layout_paging_compute.o:(.debug_abbrev)
    81ef     81ef       ef     1         obj/ux_layout_pb.o:(.debug_abbrev)
    82de     82de       ef     1         obj/ux_layout_pbb.o:(.debug_abbrev)
    83cd     83cd       cc     1         obj/ux_layout_pbn.o:(.debug_abbrev)
    8499     8499       ef     1         obj/ux_layout_pn.o:(.debug_abbrev)
    8588     8588       cc     1         obj/ux_layout_pnn.o:(.debug_abbrev)
    8654     8654       f3     1         obj/ux_layout_utils.o:(.debug_abbrev)
    8747     8747       9d     1         obj/ux_legacy.o:(.debug_abbrev)
    87e4     87e4      109     1         obj/ux_menulist.o:(.debug_abbrev)
    88ed     88ed      152     1         obj/ux_stack.o:(.debug_abbrev)
       0        0    1d914     1 .debug_line
       0        0      ddb     1         obj/bagl.o:(.debug_line)
     ddb      ddb      2d9     1         obj/bagl_fonts.o:(.debug_line)
    10b4     10b4     11bb     1         obj/ble_gap_aci.o:(.debug_line)
    226f     226f     1319     1         obj/ble_gatt_aci.o:(.debug_line)
    3588     3588      76e     1         obj/ble_hal_aci.o:(.debug_line)
    3cf6     3cf6     17e1     1         obj/ble_hci_le.o:(.debug_line)
    54d7     54d7      4be     1         obj/ble_l2cap_aci.o:(.debug_line)
    5995     5995      14f     1         obj/cmd_getAppConfiguration.o:(.debug_line)
    5ae4     5ae4      2eb     1         obj/cmd_getEth2PublicKey.o:(.debug_line)
    5dcf     5dcf      294     1         obj/cmd_getPublicKey.o:(.debug_line)
    6063     6063      3ab     1         obj/cmd_performPrivacyOperation.o:(.debug_line)
    640e     640e      36e     1         obj/cmd_provideNFTInfo.o:(.debug_line)
    677c     677c      333     1         obj/cmd_provideTokenInfo.o:(.debug_line)
    6aaf     6aaf      1d2     1         obj/cmd_setEth2WithdrawalIndex.o:(.debug_line)
    6c81     6c81      35e     1         obj/cmd_setExternalPlugin.o:(.debug_line)
    6fdf     6fdf      389     1         obj/cmd_setPlugin.o:(.debug_line)
    7368     7368      4b0     1         obj/cmd_signMessage.o:(.debug_line)
    7818     7818      22d     1         obj/cmd_signMessage712.o:(.debug_line)
    7a45     7a45      3e1     1         obj/cmd_signTx.o:(.debug_line)
    7e26     7e26      271     1         obj/cmd_stark_getPublicKey.o:(.debug_line)
    8097     8097      262     1         obj/cmd_stark_provideQuantum.o:(.debug_line)
    82f9     82f9      61e     1         obj/cmd_stark_sign.o:(.debug_line)
    8917     8917      2b0     1         obj/cmd_stark_unsafe_sign.o:(.debug_line)
    8bc7     8bc7      472     1         obj/compound_plugin.o:(.debug_line)
    9039     9039      7ac     1         obj/cx_stubs.o:(.debug_line)
    97e5     97e5      44c     1         obj/erc1155_plugin.o:(.debug_line)
    9c31     9c31      418     1         obj/erc1155_provide_parameters.o:(.debug_line)
    a049     a049      336     1         obj/erc1155_ui.o:(.debug_line)
    a37f     a37f      4dc     1         obj/erc20_plugin.o:(.debug_line)
    a85b     a85b      419     1         obj/erc721_plugin.o:(.debug_line)
    ac74     ac74      30e     1         obj/erc721_provide_parameters.o:(.debug_line)
    af82     af82      30d     1         obj/erc721_ui.o:(.debug_line)
    b28f     b28f      410     1         obj/eth2_plugin.o:(.debug_line)
    b69f     b69f      90a     1         obj/ethUstream.o:(.debug_line)
    bfa9     bfa9      6ed     1         obj/ethUtils.o:(.debug_line)
    c696     c696      5f4     1         obj/eth_plugin_handler.o:(.debug_line)
    cc8a     cc8a      166     1         obj/eth_plugin_internal.o:(.debug_line)
    cdf0     cdf0       81     1         obj/eth_plugin_ui.o:(.debug_line)
    ce71     ce71       55     1         obj/glyphs.o:(.debug_line)
    cec6     cec6      2d3     1         obj/handle_check_address.o:(.debug_line)
    d199     d199      188     1         obj/handle_get_printable_amount.o:(.debug_line)
    d321     d321      225     1         obj/handle_swap_sign_transaction.o:(.debug_line)
    d546     d546      cca     1         obj/ledger_ble.o:(.debug_line)
    e210     e210      437     1         obj/ledger_protocol.o:(.debug_line)
    e647     e647      11d     1         obj/logic_getEth2PublicKey.o:(.debug_line)
    e764     e764      130     1         obj/logic_getPublicKey.o:(.debug_line)
    e894     e894      138     1         obj/logic_performPrivacyOperation.o:(.debug_line)
    e9cc     e9cc      8b8     1         obj/logic_signTx.o:(.debug_line)
    f284     f284      121     1         obj/logic_stark_getPublicKey.o:(.debug_line)
    f3a5     f3a5      b2a     1         obj/main.o:(.debug_line)
    fecf     fecf      225     1         obj/network.o:(.debug_line)
   100f4    100f4      54d     1         obj/os.o:(.debug_line)
   10641    10641      c72     1         obj/os_io_seproxyhal.o:(.debug_line)
   112b3    112b3       93     1         obj/os_io_task.o:(.debug_line)
   11346    11346      3c8     1         obj/os_io_usb.o:(.debug_line)
   1170e    1170e      41b     1         obj/os_printf.o:(.debug_line)
   11b29    11b29       9c     1         obj/osal.o:(.debug_line)
   11bc5    11bc5       83     1         obj/pic.o:(.debug_line)
   11c48    11c48      1fb     1         obj/poorstream.o:(.debug_line)
   11e43    11e43       60     1         obj/stack_protector_init.o:(.debug_line)
   11ea3    11ea3      2fc     1         obj/stark_crypto.o:(.debug_line)
   1219f    1219f      51d     1         obj/stark_utils.o:(.debug_line)
   126bc    126bc      8d1     1         obj/starkware_plugin.o:(.debug_line)
   12f8d    12f8d       57     1         obj/svc_call.o:(.debug_line)
   12fe4    12fe4       56     1         obj/svc_cx_call.o:(.debug_line)
   1303a    1303a     1c26     1         obj/syscalls.o:(.debug_line)
   14c60    14c60      4d2     1         obj/u2f_impl.o:(.debug_line)
   15132    15132      16e     1         obj/u2f_io.o:(.debug_line)
   152a0    152a0      864     1         obj/u2f_transport.o:(.debug_line)
   15b04    15b04      198     1         obj/ui_common_getEth2PublicKey.o:(.debug_line)
   15c9c    15c9c      1ae     1         obj/ui_common_getPublicKey.o:(.debug_line)
   15e4a    15e4a      1c4     1         obj/ui_common_performPrivacyOperation.o:(.debug_line)
   1600e    1600e      2cc     1         obj/ui_common_signMessage.o:(.debug_line)
   162da    162da      334     1         obj/ui_common_signMessage712.o:(.debug_line)
   1660e    1660e      38c     1         obj/ui_common_signTx.o:(.debug_line)
   1699a    1699a      19c     1         obj/ui_common_stark_getPublicKey.o:(.debug_line)
   16b36    16b36      195     1         obj/ui_common_stark_sign.o:(.debug_line)
   16ccb    16ccb      288     1         obj/ui_common_stark_unsafe_sign.o:(.debug_line)
   16f53    16f53      371     1         obj/ui_flow.o:(.debug_line)
   172c4    172c4       f4     1         obj/ui_flow_erc20_approval.o:(.debug_line)
   173b8    173b8      128     1         obj/ui_flow_getEth2PublicKey.o:(.debug_line)
   174e0    174e0       f0     1         obj/ui_flow_getPublicKey.o:(.debug_line)
   175d0    175d0      106     1         obj/ui_flow_performPrivacyOperation.o:(.debug_line)
   176d6    176d6       ee     1         obj/ui_flow_signMessage.o:(.debug_line)
   177c4    177c4      157     1         obj/ui_flow_signMessage712.o:(.debug_line)
   1791b    1791b      334     1         obj/ui_flow_signTx.o:(.debug_line)
   17c4f    17c4f       fc     1         obj/ui_flow_stark_getPublicKey.o:(.debug_line)
   17d4b    17d4b      19f     1         obj/ui_flow_stark_sign.o:(.debug_line)
   17eea    17eea      15c     1         obj/ui_flow_stark_unsafe_sign.o:(.debug_line)
   18046    18046      372     1         obj/ui_plugin.o:(.debug_line)
   183b8    183b8     12f9     1         obj/uint256.o:(.debug_line)
   196b1    196b1      343     1         obj/usbd_conf.o:(.debug_line)
   199f4    199f4      69f     1         obj/usbd_core.o:(.debug_line)
   1a093    1a093      770     1         obj/usbd_ctlreq.o:(.debug_line)
   1a803    1a803      263     1         obj/usbd_hid.o:(.debug_line)
   1aa66    1aa66      611     1         obj/usbd_impl.o:(.debug_line)
   1b077    1b077      253     1         obj/usbd_ioreq.o:(.debug_line)
   1b2ca    1b2ca      3ef     1         obj/utils.o:(.debug_line)
   1b6b9    1b6b9      675     1         obj/ux_flow_engine.o:(.debug_line)
   1bd2e    1bd2e       f6     1         obj/ux_layout_bb.o:(.debug_line)
   1be24    1be24       f6     1         obj/ux_layout_bn.o:(.debug_line)
   1bf1a    1bf1a       d9     1         obj/ux_layout_bnn.o:(.debug_line)
   1bff3    1bff3       da     1         obj/ux_layout_bnnn.o:(.debug_line)
   1c0cd    1c0cd       f6     1         obj/ux_layout_nn.o:(.debug_line)
   1c1c3    1c1c3      137     1         obj/ux_layout_nnbnn.o:(.debug_line)
   1c2fa    1c2fa       d7     1         obj/ux_layout_nnn.o:(.debug_line)
   1c3d1    1c3d1       d8     1         obj/ux_layout_nnnn.o:(.debug_line)
   1c4a9    1c4a9      4f4     1         obj/ux_layout_paging.o:(.debug_line)
   1c99d    1c99d      218     1         obj/ux_layout_paging_compute.o:(.debug_line)
   1cbb5    1cbb5      14c     1         obj/ux_layout_pb.o:(.debug_line)
   1cd01    1cd01      162     1         obj/ux_layout_pbb.o:(.debug_line)
   1ce63    1ce63       f7     1         obj/ux_layout_pbn.o:(.debug_line)
   1cf5a    1cf5a      14b     1         obj/ux_layout_pn.o:(.debug_line)
   1d0a5    1d0a5       f7     1         obj/ux_layout_pnn.o:(.debug_line)
   1d19c    1d19c      164     1         obj/ux_layout_utils.o:(.debug_line)
   1d300    1d300       c0     1         obj/ux_legacy.o:(.debug_line)
   1d3c0    1d3c0      187     1         obj/ux_menulist.o:(.debug_line)
   1d547    1d547      3cd     1         obj/ux_stack.o:(.debug_line)
       0        0     681c     4 .debug_frame
       0        0      130     4         obj/bagl.o:(.debug_frame)
     130      130      5ec     4         obj/ble_gap_aci.o:(.debug_frame)
     71c      71c      65c     4         obj/ble_gatt_aci.o:(.debug_frame)
     d78      d78      290     4         obj/ble_hal_aci.o:(.debug_frame)
    1008     1008      8c0     4         obj/ble_hci_le.o:(.debug_frame)
    18c8     18c8      154     4         obj/ble_l2cap_aci.o:(.debug_frame)
    1a1c     1a1c       20     4         obj/cmd_getAppConfiguration.o:(.debug_frame)
    1a3c     1a3c       54     4         obj/cmd_getEth2PublicKey.o:(.debug_frame)
    1a90     1a90       34     4         obj/cmd_getPublicKey.o:(.debug_frame)
    1ac4     1ac4       80     4         obj/cmd_performPrivacyOperation.o:(.debug_frame)
    1b44     1b44       24     4         obj/cmd_provideNFTInfo.o:(.debug_frame)
    1b68     1b68       34     4         obj/cmd_provideTokenInfo.o:(.debug_frame)
    1b9c     1b9c       30     4         obj/cmd_setEth2WithdrawalIndex.o:(.debug_frame)
    1bcc     1bcc       34     4         obj/cmd_setExternalPlugin.o:(.debug_frame)
    1c00     1c00       34     4         obj/cmd_setPlugin.o:(.debug_frame)
    1c34     1c34       58     4         obj/cmd_signMessage.o:(.debug_frame)
    1c8c     1c8c       30     4         obj/cmd_signMessage712.o:(.debug_frame)
    1cbc     1cbc       30     4         obj/cmd_signTx.o:(.debug_frame)
    1cec     1cec       34     4         obj/cmd_stark_getPublicKey.o:(.debug_frame)
    1d20     1d20       24     4         obj/cmd_stark_provideQuantum.o:(.debug_frame)
    1d44     1d44       70     4         obj/cmd_stark_sign.o:(.debug_frame)
    1db4     1db4       34     4         obj/cmd_stark_unsafe_sign.o:(.debug_frame)
    1de8     1de8       50     4         obj/compound_plugin.o:(.debug_frame)
    1e38     1e38       40     4         obj/erc1155_plugin.o:(.debug_frame)
    1e78     1e78       40     4         obj/erc1155_provide_parameters.o:(.debug_frame)
    1eb8     1eb8       30     4         obj/erc1155_ui.o:(.debug_frame)
    1ee8     1ee8       60     4         obj/erc20_plugin.o:(.debug_frame)
    1f48     1f48       40     4         obj/erc721_plugin.o:(.debug_frame)
    1f88     1f88       44     4         obj/erc721_provide_parameters.o:(.debug_frame)
    1fcc     1fcc       2c     4         obj/erc721_ui.o:(.debug_frame)
    1ff8     1ff8       30     4         obj/eth2_plugin.o:(.debug_frame)
    2028     2028      1e4     4         obj/ethUstream.o:(.debug_frame)
    220c     220c      12c     4         obj/ethUtils.o:(.debug_frame)
    2338     2338      108     4         obj/eth_plugin_handler.o:(.debug_frame)
    2440     2440       40     4         obj/eth_plugin_internal.o:(.debug_frame)
    2480     2480       28     4         obj/eth_plugin_ui.o:(.debug_frame)
    24a8     24a8       34     4         obj/handle_check_address.o:(.debug_frame)
    24dc     24dc       30     4         obj/handle_get_printable_amount.o:(.debug_frame)
    250c     250c       50     4         obj/handle_swap_sign_transaction.o:(.debug_frame)
    255c     255c      148     4         obj/ledger_ble.o:(.debug_frame)
    26a4     26a4       60     4         obj/ledger_protocol.o:(.debug_frame)
    2704     2704       28     4         obj/logic_getEth2PublicKey.o:(.debug_frame)
    272c     272c       30     4         obj/logic_getPublicKey.o:(.debug_frame)
    275c     275c       20     4         obj/logic_performPrivacyOperation.o:(.debug_frame)
    277c     277c      104     4         obj/logic_signTx.o:(.debug_frame)
    2880     2880       28     4         obj/logic_stark_getPublicKey.o:(.debug_frame)
    28a8     28a8      20c     4         obj/main.o:(.debug_frame)
    2ab4     2ab4       74     4         obj/network.o:(.debug_frame)
    2b28     2b28      150     4         obj/os.o:(.debug_frame)
    2c78     2c78      324     4         obj/os_io_seproxyhal.o:(.debug_frame)
    2f9c     2f9c       28     4         obj/os_io_task.o:(.debug_frame)
    2fc4     2fc4       78     4         obj/os_io_usb.o:(.debug_frame)
    303c     303c       34     4         obj/os_printf.o:(.debug_frame)
    3070     3070       58     4         obj/osal.o:(.debug_frame)
    30c8     30c8       38     4         obj/pic.o:(.debug_frame)
    3100     3100       5c     4         obj/poorstream.o:(.debug_frame)
    315c     315c       54     4         obj/stark_crypto.o:(.debug_frame)
    31b0     31b0       f4     4         obj/stark_utils.o:(.debug_frame)
    32a4     32a4      17c     4         obj/starkware_plugin.o:(.debug_frame)
    3420     3420      f5c     4         obj/syscalls.o:(.debug_frame)
    437c     437c       e8     4         obj/u2f_impl.o:(.debug_frame)
    4464     4464       2c     4         obj/u2f_io.o:(.debug_frame)
    4490     4490      140     4         obj/u2f_transport.o:(.debug_frame)
    45d0     45d0       2c     4         obj/ui_common_getEth2PublicKey.o:(.debug_frame)
    45fc     45fc       44     4         obj/ui_common_getPublicKey.o:(.debug_frame)
    4640     4640       44     4         obj/ui_common_performPrivacyOperation.o:(.debug_frame)
    4684     4684       4c     4         obj/ui_common_signMessage.o:(.debug_frame)
    46d0     46d0       68     4         obj/ui_common_signMessage712.o:(.debug_frame)
    4738     4738       7c     4         obj/ui_common_signTx.o:(.debug_frame)
    47b4     47b4       2c     4         obj/ui_common_stark_getPublicKey.o:(.debug_frame)
    47e0     47e0       34     4         obj/ui_common_stark_sign.o:(.debug_frame)
    4814     4814       30     4         obj/ui_common_stark_unsafe_sign.o:(.debug_frame)
    4844     4844      170     4         obj/ui_flow.o:(.debug_frame)
    49b4     49b4       40     4         obj/ui_flow_erc20_approval.o:(.debug_frame)
    49f4     49f4       70     4         obj/ui_flow_getEth2PublicKey.o:(.debug_frame)
    4a64     4a64       40     4         obj/ui_flow_getPublicKey.o:(.debug_frame)
    4aa4     4aa4       40     4         obj/ui_flow_performPrivacyOperation.o:(.debug_frame)
    4ae4     4ae4       40     4         obj/ui_flow_signMessage.o:(.debug_frame)
    4b24     4b24       a0     4         obj/ui_flow_signMessage712.o:(.debug_frame)
    4bc4     4bc4      104     4         obj/ui_flow_signTx.o:(.debug_frame)
    4cc8     4cc8       40     4         obj/ui_flow_stark_getPublicKey.o:(.debug_frame)
    4d08     4d08       e8     4         obj/ui_flow_stark_sign.o:(.debug_frame)
    4df0     4df0       a0     4         obj/ui_flow_stark_unsafe_sign.o:(.debug_frame)
    4e90     4e90       64     4         obj/ui_plugin.o:(.debug_frame)
    4ef4     4ef4      3e4     4         obj/uint256.o:(.debug_frame)
    52d8     52d8      144     4         obj/usbd_conf.o:(.debug_frame)
    541c     541c      1f4     4         obj/usbd_core.o:(.debug_frame)
    5610     5610      19c     4         obj/usbd_ctlreq.o:(.debug_frame)
    57ac     57ac       60     4         obj/usbd_hid.o:(.debug_frame)
    580c     580c      210     4         obj/usbd_impl.o:(.debug_frame)
    5a1c     5a1c       a8     4         obj/usbd_ioreq.o:(.debug_frame)
    5ac4     5ac4       f8     4         obj/utils.o:(.debug_frame)
    5bbc     5bbc      1d8     4         obj/ux_flow_engine.o:(.debug_frame)
    5d94     5d94       40     4         obj/ux_layout_bb.o:(.debug_frame)
    5dd4     5dd4       40     4         obj/ux_layout_bn.o:(.debug_frame)
    5e14     5e14       28     4         obj/ux_layout_bnn.o:(.debug_frame)
    5e3c     5e3c       28     4         obj/ux_layout_bnnn.o:(.debug_frame)
    5e64     5e64       40     4         obj/ux_layout_nn.o:(.debug_frame)
    5ea4     5ea4       48     4         obj/ux_layout_nnbnn.o:(.debug_frame)
    5eec     5eec       28     4         obj/ux_layout_nnn.o:(.debug_frame)
    5f14     5f14       28     4         obj/ux_layout_nnnn.o:(.debug_frame)
    5f3c     5f3c      1dc     4         obj/ux_layout_paging.o:(.debug_frame)
    6118     6118       40     4         obj/ux_layout_paging_compute.o:(.debug_frame)
    6158     6158       48     4         obj/ux_layout_pb.o:(.debug_frame)
    61a0     61a0       60     4         obj/ux_layout_pbb.o:(.debug_frame)
    6200     6200       40     4         obj/ux_layout_pbn.o:(.debug_frame)
    6240     6240       48     4         obj/ux_layout_pn.o:(.debug_frame)
    6288     6288       40     4         obj/ux_layout_pnn.o:(.debug_frame)
    62c8     62c8       58     4         obj/ux_layout_utils.o:(.debug_frame)
    6320     6320       28     4         obj/ux_legacy.o:(.debug_frame)
    6348     6348       80     4         obj/ux_menulist.o:(.debug_frame)
    63c8     63c8      118     4         obj/ux_stack.o:(.debug_frame)
    64e0     64e0       20     4         /opt/nanox-secure-sdk/lib/libgcc.a(_udivsi3.o):(.debug_frame)
    64f0     64f0        0     1                 $d
    6500     6500       34     4         /opt/nanox-secure-sdk/lib/libgcc.a(_muldi3.o):(.debug_frame)
    6534     6534       3c     4         /opt/nanox-secure-sdk/lib/libgcc.a(_udivmoddi4.o):(.debug_frame)
    6570     6570       28     4         /opt/nanox-secure-sdk/lib/libc.a(lib_a-aeabi_memclr.o):(.debug_frame)
    6598     6598       28     4         /opt/nanox-secure-sdk/lib/libc.a(lib_a-aeabi_memcpy.o):(.debug_frame)
    65c0     65c0       28     4         /opt/nanox-secure-sdk/lib/libc.a(lib_a-aeabi_memmove.o):(.debug_frame)
    65e8     65e8       28     4         /opt/nanox-secure-sdk/lib/libc.a(lib_a-aeabi_memset.o):(.debug_frame)
    6610     6610       28     4         /opt/nanox-secure-sdk/lib/libc.a(lib_a-explicit_bzero.o):(.debug_frame)
    6638     6638       28     4         /opt/nanox-secure-sdk/lib/libc.a(lib_a-bzero.o):(.debug_frame)
    6660     6660       2c     4         /opt/nanox-secure-sdk/lib/libc.a(lib_a-memcmp.o):(.debug_frame)
    668c     668c       34     4         /opt/nanox-secure-sdk/lib/libc.a(lib_a-memcpy-stub.o):(.debug_frame)
    66c0     66c0       34     4         /opt/nanox-secure-sdk/lib/libc.a(lib_a-memmove.o):(.debug_frame)
    66f4     66f4       30     4         /opt/nanox-secure-sdk/lib/libc.a(lib_a-memset.o):(.debug_frame)
    6724     6724       20     4         /opt/nanox-secure-sdk/lib/libc.a(lib_a-strcmp.o):(.debug_frame)
    6744     6744       2c     4         /opt/nanox-secure-sdk/lib/libc.a(lib_a-strlcat.o):(.debug_frame)
    6770     6770       30     4         /opt/nanox-secure-sdk/lib/libc.a(lib_a-strlcpy.o):(.debug_frame)
    67a0     67a0       28     4         /opt/nanox-secure-sdk/lib/libc.a(lib_a-strlen-stub.o):(.debug_frame)
    67c8     67c8       2c     4         /opt/nanox-secure-sdk/lib/libc.a(lib_a-strncmp.o):(.debug_frame)
    67f4     67f4       28     4         /opt/nanox-secure-sdk/lib/libc.a(lib_a-strnlen.o):(.debug_frame)
       0        0    12d3c     1 .debug_str
       0        0    12d3c     1         <internal>:(.debug_str)
       0        0    1b2c9     1 .debug_loc
       0        0     136e     1         obj/bagl.o:(.debug_loc)
    136e     136e     1e23     1         obj/ble_gap_aci.o:(.debug_loc)
    3191     3191     266c     1         obj/ble_gatt_aci.o:(.debug_loc)
    57fd     57fd      6b0     1         obj/ble_hal_aci.o:(.debug_loc)
    5ead     5ead     1f30     1         obj/ble_hci_le.o:(.debug_loc)
    7ddd     7ddd      756     1         obj/ble_l2cap_aci.o:(.debug_loc)
    8533     8533       74     1         obj/cmd_getAppConfiguration.o:(.debug_loc)
    85a7     85a7      374     1         obj/cmd_getEth2PublicKey.o:(.debug_loc)
    891b     891b      1d2     1         obj/cmd_getPublicKey.o:(.debug_loc)
    8aed     8aed      2df     1         obj/cmd_performPrivacyOperation.o:(.debug_loc)
    8dcc     8dcc      2dd     1         obj/cmd_provideNFTInfo.o:(.debug_loc)
    90a9     90a9      236     1         obj/cmd_provideTokenInfo.o:(.debug_loc)
    92df     92df       f6     1         obj/cmd_setEth2WithdrawalIndex.o:(.debug_loc)
    93d5     93d5      165     1         obj/cmd_setExternalPlugin.o:(.debug_loc)
    953a     953a      290     1         obj/cmd_setPlugin.o:(.debug_loc)
    97ca     97ca      459     1         obj/cmd_signMessage.o:(.debug_loc)
    9c23     9c23       f2     1         obj/cmd_signMessage712.o:(.debug_loc)
    9d15     9d15      2a5     1         obj/cmd_signTx.o:(.debug_loc)
    9fba     9fba      19a     1         obj/cmd_stark_getPublicKey.o:(.debug_loc)
    a154     a154      19d     1         obj/cmd_stark_provideQuantum.o:(.debug_loc)
    a2f1     a2f1      63a     1         obj/cmd_stark_sign.o:(.debug_loc)
    a92b     a92b      1d7     1         obj/cmd_stark_unsafe_sign.o:(.debug_loc)
    ab02     ab02      310     1         obj/compound_plugin.o:(.debug_loc)
    ae12     ae12      272     1         obj/erc1155_plugin.o:(.debug_loc)
    b084     b084      322     1         obj/erc1155_provide_parameters.o:(.debug_loc)
    b3a6     b3a6      11c     1         obj/erc1155_ui.o:(.debug_loc)
    b4c2     b4c2      302     1         obj/erc20_plugin.o:(.debug_loc)
    b7c4     b7c4      225     1         obj/erc721_plugin.o:(.debug_loc)
    b9e9     b9e9      1c4     1         obj/erc721_provide_parameters.o:(.debug_loc)
    bbad     bbad      111     1         obj/erc721_ui.o:(.debug_loc)
    bcbe     bcbe      1fd     1         obj/eth2_plugin.o:(.debug_loc)
    bebb     bebb      844     1         obj/ethUstream.o:(.debug_loc)
    c6ff     c6ff      8a7     1         obj/ethUtils.o:(.debug_loc)
    cfa6     cfa6      55b     1         obj/eth_plugin_handler.o:(.debug_loc)
    d501     d501       d8     1         obj/eth_plugin_internal.o:(.debug_loc)
    d5d9     d5d9      14e     1         obj/handle_check_address.o:(.debug_loc)
    d727     d727       88     1         obj/handle_get_printable_amount.o:(.debug_loc)
    d7af     d7af       b0     1         obj/handle_swap_sign_transaction.o:(.debug_loc)
    d85f     d85f      7e1     1         obj/ledger_ble.o:(.debug_loc)
    e040     e040      1ff     1         obj/ledger_protocol.o:(.debug_loc)
    e23f     e23f       1f     1         obj/logic_getEth2PublicKey.o:(.debug_loc)
    e25e     e25e       4d     1         obj/logic_getPublicKey.o:(.debug_loc)
    e2ab     e2ab       1e     1         obj/logic_performPrivacyOperation.o:(.debug_loc)
    e2c9     e2c9      72b     1         obj/logic_signTx.o:(.debug_loc)
    e9f4     e9f4       1f     1         obj/logic_stark_getPublicKey.o:(.debug_loc)
    ea13     ea13      70e     1         obj/main.o:(.debug_loc)
    f121     f121       92     1         obj/network.o:(.debug_loc)
    f1b3     f1b3      786     1         obj/os.o:(.debug_loc)
    f939     f939      8d5     1         obj/os_io_seproxyhal.o:(.debug_loc)
   1020e    1020e      1e9     1         obj/os_io_usb.o:(.debug_loc)
   103f7    103f7      555     1         obj/os_printf.o:(.debug_loc)
   1094c    1094c      135     1         obj/osal.o:(.debug_loc)
   10a81    10a81       7d     1         obj/pic.o:(.debug_loc)
   10afe    10afe      114     1         obj/poorstream.o:(.debug_loc)
   10c12    10c12      3cb     1         obj/stark_crypto.o:(.debug_loc)
   10fdd    10fdd      7bf     1         obj/stark_utils.o:(.debug_loc)
   1179c    1179c      8a4     1         obj/starkware_plugin.o:(.debug_loc)
   12040    12040     2725     1         obj/syscalls.o:(.debug_loc)
   14765    14765      559     1         obj/u2f_impl.o:(.debug_loc)
   14cbe    14cbe       65     1         obj/u2f_io.o:(.debug_loc)
   14d23    14d23      60e     1         obj/u2f_transport.o:(.debug_loc)
   15331    15331       26     1         obj/ui_common_getEth2PublicKey.o:(.debug_loc)
   15357    15357       51     1         obj/ui_common_getPublicKey.o:(.debug_loc)
   153a8    153a8       51     1         obj/ui_common_performPrivacyOperation.o:(.debug_loc)
   153f9    153f9      19e     1         obj/ui_common_signMessage.o:(.debug_loc)
   15597    15597      301     1         obj/ui_common_signMessage712.o:(.debug_loc)
   15898    15898      24d     1         obj/ui_common_signTx.o:(.debug_loc)
   15ae5    15ae5       26     1         obj/ui_common_stark_getPublicKey.o:(.debug_loc)
   15b0b    15b0b       3e     1         obj/ui_common_stark_sign.o:(.debug_loc)
   15b49    15b49      108     1         obj/ui_common_stark_unsafe_sign.o:(.debug_loc)
   15c51    15c51       a2     1         obj/ui_flow.o:(.debug_loc)
   15cf3    15cf3       31     1         obj/ui_flow_getEth2PublicKey.o:(.debug_loc)
   15d24    15d24       62     1         obj/ui_flow_signMessage712.o:(.debug_loc)
   15d86    15d86       fc     1         obj/ui_flow_signTx.o:(.debug_loc)
   15e82    15e82       93     1         obj/ui_flow_stark_sign.o:(.debug_loc)
   15f15    15f15       62     1         obj/ui_flow_stark_unsafe_sign.o:(.debug_loc)
   15f77    15f77       26     1         obj/ui_plugin.o:(.debug_loc)
   15f9d    15f9d     20ed     1         obj/uint256.o:(.debug_loc)
   1808a    1808a      2f5     1         obj/usbd_conf.o:(.debug_loc)
   1837f    1837f      639     1         obj/usbd_core.o:(.debug_loc)
   189b8    189b8      74f     1         obj/usbd_ctlreq.o:(.debug_loc)
   19107    19107      155     1         obj/usbd_hid.o:(.debug_loc)
   1925c    1925c      48d     1         obj/usbd_impl.o:(.debug_loc)
   196e9    196e9      19b     1         obj/usbd_ioreq.o:(.debug_loc)
   19884    19884      690     1         obj/utils.o:(.debug_loc)
   19f14    19f14      2e5     1         obj/ux_flow_engine.o:(.debug_loc)
   1a1f9    1a1f9       4c     1         obj/ux_layout_bb.o:(.debug_loc)
   1a245    1a245       5c     1         obj/ux_layout_bn.o:(.debug_loc)
   1a2a1    1a2a1       1e     1         obj/ux_layout_bnn.o:(.debug_loc)
   1a2bf    1a2bf       1e     1         obj/ux_layout_bnnn.o:(.debug_loc)
   1a2dd    1a2dd       5c     1         obj/ux_layout_nn.o:(.debug_loc)
   1a339    1a339       67     1         obj/ux_layout_nnbnn.o:(.debug_loc)
   1a3a0    1a3a0       1e     1         obj/ux_layout_nnn.o:(.debug_loc)
   1a3be    1a3be       1e     1         obj/ux_layout_nnnn.o:(.debug_loc)
   1a3dc    1a3dc      5f8     1         obj/ux_layout_paging.o:(.debug_loc)
   1a9d4    1a9d4      2bd     1         obj/ux_layout_paging_compute.o:(.debug_loc)
   1ac91    1ac91       67     1         obj/ux_layout_pb.o:(.debug_loc)
   1acf8    1acf8       8d     1         obj/ux_layout_pbb.o:(.debug_loc)
   1ad85    1ad85       5c     1         obj/ux_layout_pbn.o:(.debug_loc)
   1ade1    1ade1       67     1         obj/ux_layout_pn.o:(.debug_loc)
   1ae48    1ae48       5c     1         obj/ux_layout_pnn.o:(.debug_loc)
   1aea4    1aea4       92     1         obj/ux_layout_utils.o:(.debug_loc)
   1af36    1af36      147     1         obj/ux_menulist.o:(.debug_loc)
   1b07d    1b07d      24c     1         obj/ux_stack.o:(.debug_loc)
   1b2c9    1b2c9        0     1 PROVIDE ( _nvram = ABSOLUTE ( _nvram_start ) )
   1b2c9    1b2c9        0     1 PROVIDE ( _envram = ABSOLUTE ( _nvram_end ) )
       0        0     33e0     8 .debug_ranges
       0        0      118     1         obj/bagl.o:(.debug_ranges)
     118      118      158     1         obj/ble_gap_aci.o:(.debug_ranges)
     270      270      1b8     1         obj/ble_gatt_aci.o:(.debug_ranges)
     428      428       a0     1         obj/ble_hal_aci.o:(.debug_ranges)
     4c8      4c8      208     1         obj/ble_hci_le.o:(.debug_ranges)
     6d0      6d0       50     1         obj/ble_l2cap_aci.o:(.debug_ranges)
     720      720       18     1         obj/cmd_getEth2PublicKey.o:(.debug_ranges)
     738      738       40     1         obj/cmd_performPrivacyOperation.o:(.debug_ranges)
     778      778       18     1         obj/cmd_provideNFTInfo.o:(.debug_ranges)
     790      790       30     1         obj/cmd_provideTokenInfo.o:(.debug_ranges)
     7c0      7c0       18     1         obj/cmd_setEth2WithdrawalIndex.o:(.debug_ranges)
     7d8      7d8       30     1         obj/cmd_setExternalPlugin.o:(.debug_ranges)
     808      808       18     1         obj/cmd_setPlugin.o:(.debug_ranges)
     820      820       a0     1         obj/cmd_signMessage.o:(.debug_ranges)
     8c0      8c0       18     1         obj/cmd_signTx.o:(.debug_ranges)
     8d8      8d8       40     1         obj/cmd_stark_sign.o:(.debug_ranges)
     918      918       c0     1         obj/compound_plugin.o:(.debug_ranges)
     9d8      9d8      3a0     8         obj/cx_stubs.o:(.debug_ranges)
     d78      d78       90     1         obj/erc1155_plugin.o:(.debug_ranges)
     e08      e08       98     1         obj/erc1155_provide_parameters.o:(.debug_ranges)
     ea0      ea0       50     1         obj/erc1155_ui.o:(.debug_ranges)
     ef0      ef0       e0     1         obj/erc20_plugin.o:(.debug_ranges)
     fd0      fd0       58     1         obj/erc721_plugin.o:(.debug_ranges)
    1028     1028       48     1         obj/erc721_provide_parameters.o:(.debug_ranges)
    1070     1070       58     1         obj/erc721_ui.o:(.debug_ranges)
    10c8     10c8       68     1         obj/eth2_plugin.o:(.debug_ranges)
    1130     1130      1d0     1         obj/ethUstream.o:(.debug_ranges)
    1300     1300       b8     1         obj/ethUtils.o:(.debug_ranges)
    13b8     13b8       98     1         obj/eth_plugin_handler.o:(.debug_ranges)
    1450     1450       18     1         obj/eth_plugin_internal.o:(.debug_ranges)
    1468     1468       18     1         obj/handle_swap_sign_transaction.o:(.debug_ranges)
    1480     1480      1e0     1         obj/ledger_ble.o:(.debug_ranges)
    1660     1660       68     1         obj/ledger_protocol.o:(.debug_ranges)
    16c8     16c8       c0     1         obj/logic_signTx.o:(.debug_ranges)
    1788     1788      180     1         obj/main.o:(.debug_ranges)
    1908     1908       40     1         obj/network.o:(.debug_ranges)
    1948     1948       90     1         obj/os.o:(.debug_ranges)
    19d8     19d8      130     1         obj/os_io_seproxyhal.o:(.debug_ranges)
    1b08     1b08       40     1         obj/os_io_usb.o:(.debug_ranges)
    1b48     1b48       20     1         obj/osal.o:(.debug_ranges)
    1b68     1b68       18     1         obj/pic.o:(.debug_ranges)
    1b80     1b80       20     1         obj/poorstream.o:(.debug_ranges)
    1ba0     1ba0       30     1         obj/stark_crypto.o:(.debug_ranges)
    1bd0     1bd0       78     1         obj/stark_utils.o:(.debug_ranges)
    1c48     1c48      158     1         obj/starkware_plugin.o:(.debug_ranges)
    1da0     1da0      510     1         obj/syscalls.o:(.debug_ranges)
    22b0     22b0       48     1         obj/u2f_impl.o:(.debug_ranges)
    22f8     22f8       e0     1         obj/u2f_transport.o:(.debug_ranges)
    23d8     23d8       18     1         obj/ui_common_getPublicKey.o:(.debug_ranges)
    23f0     23f0       18     1         obj/ui_common_performPrivacyOperation.o:(.debug_ranges)
    2408     2408       18     1         obj/ui_common_signMessage.o:(.debug_ranges)
    2420     2420       38     1         obj/ui_common_signMessage712.o:(.debug_ranges)
    2458     2458       28     1         obj/ui_common_signTx.o:(.debug_ranges)
    2480     2480       78     1         obj/ui_flow.o:(.debug_ranges)
    24f8     24f8       18     1         obj/ui_flow_erc20_approval.o:(.debug_ranges)
    2510     2510       28     1         obj/ui_flow_getEth2PublicKey.o:(.debug_ranges)
    2538     2538       18     1         obj/ui_flow_getPublicKey.o:(.debug_ranges)
    2550     2550       18     1         obj/ui_flow_performPrivacyOperation.o:(.debug_ranges)
    2568     2568       18     1         obj/ui_flow_signMessage.o:(.debug_ranges)
    2580     2580       38     1         obj/ui_flow_signMessage712.o:(.debug_ranges)
    25b8     25b8       58     1         obj/ui_flow_signTx.o:(.debug_ranges)
    2610     2610       18     1         obj/ui_flow_stark_getPublicKey.o:(.debug_ranges)
    2628     2628       50     1         obj/ui_flow_stark_sign.o:(.debug_ranges)
    2678     2678       38     1         obj/ui_flow_stark_unsafe_sign.o:(.debug_ranges)
    26b0     26b0       20     1         obj/ui_plugin.o:(.debug_ranges)
    26d0     26d0      6f0     1         obj/uint256.o:(.debug_ranges)
    2dc0     2dc0       70     1         obj/usbd_conf.o:(.debug_ranges)
    2e30     2e30       b0     1         obj/usbd_core.o:(.debug_ranges)
    2ee0     2ee0       88     1         obj/usbd_ctlreq.o:(.debug_ranges)
    2f68     2f68       20     1         obj/usbd_hid.o:(.debug_ranges)
    2f88     2f88       c8     1         obj/usbd_impl.o:(.debug_ranges)
    3050     3050       38     1         obj/usbd_ioreq.o:(.debug_ranges)
    3088     3088       48     1         obj/utils.o:(.debug_ranges)
    30d0     30d0       98     1         obj/ux_flow_engine.o:(.debug_ranges)
    3168     3168       18     1         obj/ux_layout_bb.o:(.debug_ranges)
    3180     3180       18     1         obj/ux_layout_bn.o:(.debug_ranges)
    3198     3198       18     1         obj/ux_layout_nn.o:(.debug_ranges)
    31b0     31b0       18     1         obj/ux_layout_nnbnn.o:(.debug_ranges)
    31c8     31c8       c8     1         obj/ux_layout_paging.o:(.debug_ranges)
    3290     3290       18     1         obj/ux_layout_paging_compute.o:(.debug_ranges)
    32a8     32a8       18     1         obj/ux_layout_pb.o:(.debug_ranges)
    32c0     32c0       20     1         obj/ux_layout_pbb.o:(.debug_ranges)
    32e0     32e0       18     1         obj/ux_layout_pbn.o:(.debug_ranges)
    32f8     32f8       18     1         obj/ux_layout_pn.o:(.debug_ranges)
    3310     3310       18     1         obj/ux_layout_pnn.o:(.debug_ranges)
    3328     3328       20     1         obj/ux_layout_utils.o:(.debug_ranges)
    3348     3348       28     1         obj/ux_menulist.o:(.debug_ranges)
    3370     3370       70     1         obj/ux_stack.o:(.debug_ranges)
       0        0       49     1 .ARM.attributes
       0        0       49     1         obj/bagl.o:(.ARM.attributes)
       0        0     7e20     4 .symtab
       0        0     7e20     4         <internal>:(.symtab)
       0        0       ab     1 .shstrtab
       0        0       ab     1         <internal>:(.shstrtab)
       0        0     693e     1 .strtab
       0        0     693e     1         <internal>:(.strtab)
